(lp1
V Monday, November 24, 2014 
p2
aV Thursday, November 20, 2014 
p3
aV Tuesday, November 18, 2014 
p4
aV Monday, November 17, 2014 
p5
aV Thursday, November 13, 2014 
p6
aV Wednesday, November 12, 2014 
p7
aV Monday, November 10, 2014 
p8
aV Thursday, November 6, 2014 
p9
aV Wednesday, November 5, 2014 
p10
aV Monday, November 3, 2014 
p11
aV Thursday, October 30, 2014 
p12
aV Monday, October 27, 2014 
p13
aV Thursday, October 23, 2014 
p14
aV Wednesday, October 22, 2014 
p15
aV Friday, October 17, 2014 
p16
aV Monday, October 13, 2014 
p17
aV Wednesday, October 8, 2014 
p18
aV Monday, October 6, 2014 
p19
aV Thursday, October 2, 2014 
p20
aV Monday, September 29, 2014 
p21
aV Wednesday, September 24, 2014 
p22
aV Monday, September 22, 2014 
p23
aV Wednesday, September 17, 2014 
p24
aV Wednesday, September 3, 2014 
p25
aV Wednesday, August 27, 2014 
p26
aV Friday, August 22, 2014 
p27
aV Thursday, August 14, 2014 
p28
aV Monday, August 11, 2014 
p29
aV Wednesday, August 6, 2014 
p30
aV Tuesday, August 5, 2014 
p31
aV Wednesday, July 30, 2014 
p32
aV Tuesday, July 29, 2014 
p33
aV Saturday, July 26, 2014 
p34
aV Thursday, July 24, 2014 
p35
aV Wednesday, July 23, 2014 
p36
aV Monday, July 21, 2014 
p37
aV Thursday, July 17, 2014 
p38
aV Monday, July 14, 2014 
p39
aV Thursday, July 10, 2014 
p40
aV Monday, July 7, 2014 
p41
aV Monday, June 30, 2014 
p42
aV Wednesday, June 25, 2014 
p43
aV Tuesday, June 24, 2014 
p44
aV Friday, June 20, 2014 
p45
aV Thursday, June 19, 2014 
p46
aV Monday, June 16, 2014 
p47
aV Tuesday, June 10, 2014 
p48
aV Monday, June 9, 2014 
p49
aV Wednesday, June 4, 2014 
p50
aV Monday, June 2, 2014 
p51
aV Thursday, May 29, 2014 
p52
aV Tuesday, May 27, 2014 
p53
aV Thursday, May 22, 2014 
p54
aV Wednesday, May 21, 2014 
p55
aV Monday, May 19, 2014 
p56
aV Friday, May 16, 2014 
p57
aV Wednesday, May 14, 2014 
p58
aV Monday, May 12, 2014 
p59
aV Thursday, May 8, 2014 
p60
aV Wednesday, May 7, 2014 
p61
aV Monday, May 5, 2014 
p62
aV Thursday, May 1, 2014 
p63
aV Wednesday, April 30, 2014 
p64
aV Friday, April 25, 2014 
p65
aV Tuesday, April 22, 2014 
p66
aV Thursday, April 17, 2014 
p67
aV Tuesday, April 15, 2014 
p68
aV Monday, April 14, 2014 
p69
aV Thursday, April 10, 2014 
p70
aV Monday, April 7, 2014 
p71
aV Monday, March 31, 2014 
p72
aV Tuesday, March 25, 2014 
p73
aV Thursday, March 20, 2014 
p74
aV Wednesday, March 19, 2014 
p75
aV Monday, March 17, 2014 
p76
aV Wednesday, March 12, 2014 
p77
aV Monday, March 10, 2014 
p78
aV Friday, March 7, 2014 
p79
aV Thursday, March 6, 2014 
p80
aV Wednesday, March 5, 2014 
p81
aV Tuesday, March 4, 2014 
p82
aV Friday, February 28, 2014 
p83
aV Wednesday, February 26, 2014 
p84
aV Monday, February 24, 2014 
p85
aV Thursday, February 20, 2014 
p86
aV Thursday, February 13, 2014 
p87
aV Monday, February 10, 2014 
p88
aV Wednesday, February 5, 2014 
p89
aV Monday, February 3, 2014 
p90
aV Friday, January 31, 2014 
p91
aV Thursday, January 30, 2014 
p92
aV Wednesday, January 29, 2014 
p93
aV Monday, January 27, 2014 
p94
aV Thursday, January 23, 2014 
p95
aV Tuesday, January 21, 2014 
p96
aV Wednesday, January 15, 2014 
p97
aV Tuesday, January 7, 2014 
p98
aV Monday, December 30, 2013 
p99
aV Tuesday, December 24, 2013 
p100
aV Monday, December 23, 2013 
p101
aV Thursday, December 19, 2013 
p102
aV Monday, December 16, 2013 
p103
aV Thursday, December 12, 2013 
p104
aV Wednesday, December 11, 2013 
p105
aV Monday, December 9, 2013 
p106
aV Thursday, December 5, 2013 
p107
aV Tuesday, December 3, 2013 
p108
aV Monday, December 2, 2013 
p109
aV Monday, November 25, 2013 
p110
aV Thursday, November 21, 2013 
p111
aV Wednesday, November 20, 2013 
p112
aV Tuesday, November 19, 2013 
p113
aV Wednesday, November 13, 2013 
p114
aV Tuesday, November 12, 2013 
p115
aV Monday, November 11, 2013 
p116
aV Friday, November 8, 2013 
p117
aV Wednesday, November 6, 2013 
p118
aV Wednesday, November 6, 2013 
p119
aV Monday, November 4, 2013 
p120
aV Friday, November 1, 2013 
p121
aV Thursday, October 31, 2013 
p122
aV Wednesday, October 30, 2013 
p123
aV Monday, October 28, 2013 
p124
aV Thursday, October 24, 2013 
p125
aV Wednesday, October 23, 2013 
p126
aV Monday, October 21, 2013 
p127
aV Friday, October 18, 2013 
p128
aV Tuesday, October 15, 2013 
p129
aV Friday, October 11, 2013 
p130
aV Wednesday, October 9, 2013 
p131
aV Tuesday, October 8, 2013 
p132
aV Thursday, October 3, 2013 
p133
aV Wednesday, October 2, 2013 
p134
aV Monday, September 30, 2013 
p135
aV Thursday, September 26, 2013 
p136
aV Monday, September 23, 2013 
p137
aV Thursday, September 19, 2013 
p138
aV Tuesday, September 17, 2013 
p139
aV Thursday, September 12, 2013 
p140
aV Monday, September 9, 2013 
p141
aV Tuesday, September 3, 2013 
p142
aV Thursday, August 29, 2013 
p143
aV Wednesday, August 28, 2013 
p144
aV Tuesday, August 27, 2013 
p145
aV Wednesday, August 21, 2013 
p146
aV Monday, August 19, 2013 
p147
aV Wednesday, August 14, 2013 
p148
aV Tuesday, August 13, 2013 
p149
aV Monday, August 12, 2013 
p150
aV Wednesday, August 7, 2013 
p151
aV Tuesday, August 6, 2013 
p152
aV Monday, August 5, 2013 
p153
aV Wednesday, July 31, 2013 
p154
aV Monday, July 29, 2013 
p155
aV Friday, July 26, 2013 
p156
aV Friday, July 26, 2013 
p157
aV Wednesday, July 24, 2013 
p158
aV Wednesday, July 17, 2013 
p159
aV Monday, July 15, 2013 
p160
aV Thursday, July 11, 2013 
p161
aV Tuesday, July 9, 2013 
p162
aV Wednesday, July 3, 2013 
p163
aV Monday, July 1, 2013 
p164
aV Thursday, June 27, 2013 
p165
aV Monday, June 24, 2013 
p166
aV Thursday, June 20, 2013 
p167
aV Thursday, June 20, 2013 
p168
aV Wednesday, June 19, 2013 
p169
aV Monday, June 17, 2013 
p170
aV Friday, June 14, 2013 
p171
aV Thursday, June 13, 2013 
p172
aV Wednesday, June 12, 2013 
p173
aV Monday, June 10, 2013 
p174
aV Friday, June 7, 2013 
p175
aV Thursday, June 6, 2013 
p176
aV Monday, June 3, 2013 
p177
aV Friday, May 31, 2013 
p178
aV Wednesday, May 29, 2013 
p179
aV Tuesday, May 28, 2013 
p180
aV Wednesday, May 22, 2013 
p181
aV Monday, May 20, 2013 
p182
aV Friday, May 17, 2013 
p183
aV Wednesday, May 15, 2013 
p184
aV Monday, May 13, 2013 
p185
aV Friday, May 10, 2013 
p186
aV Wednesday, May 8, 2013 
p187
aV Monday, May 6, 2013 
p188
aV Friday, May 3, 2013 
p189
aV Thursday, May 2, 2013 
p190
aV Wednesday, May 1, 2013 
p191
aV Monday, April 29, 2013 
p192
aV Friday, April 26, 2013 
p193
aV Wednesday, April 24, 2013 
p194
aV Monday, April 22, 2013 
p195
aV Friday, April 19, 2013 
p196
aV Wednesday, April 17, 2013 
p197
aV Monday, April 15, 2013 
p198
aV Friday, April 12, 2013 
p199
aV Wednesday, April 10, 2013 
p200
aV Monday, April 8, 2013 
p201
aV Thursday, April 4, 2013 
p202
aV Monday, April 1, 2013 
p203
aV Thursday, March 28, 2013 
p204
aV Monday, March 25, 2013 
p205
aV Thursday, March 21, 2013 
p206
aV Wednesday, March 20, 2013 
p207
aV Monday, March 18, 2013 
p208
aV Thursday, March 14, 2013 
p209
aV Monday, March 11, 2013 
p210
aV Friday, March 8, 2013 
p211
aV Wednesday, March 6, 2013 
p212
aV Monday, March 4, 2013 
p213
aV Friday, March 1, 2013 
p214
aV Wednesday, February 27, 2013 
p215
aV Tuesday, February 26, 2013 
p216
aV Friday, February 22, 2013 
p217
aV Wednesday, February 20, 2013 
p218
aV Monday, February 18, 2013 
p219
aV Thursday, February 14, 2013 
p220
aV Monday, February 11, 2013 
p221
aV Wednesday, February 6, 2013 
p222
aV Monday, February 4, 2013 
p223
aV Friday, February 1, 2013 
p224
aV Tuesday, January 29, 2013 
p225
aV Monday, January 28, 2013 
p226
aV Thursday, January 24, 2013 
p227
aV Monday, January 7, 2013 
p228
aV Monday, December 31, 2012 
p229
aV Thursday, December 27, 2012 
p230
aV Thursday, December 20, 2012 
p231
aV Monday, December 17, 2012 
p232
aV Friday, December 14, 2012 
p233
aV Thursday, December 13, 2012 
p234
aV Monday, December 10, 2012 
p235
aV Wednesday, December 5, 2012 
p236
aV Tuesday, December 4, 2012 
p237
aV Friday, November 30, 2012 
p238
aV Thursday, November 29, 2012 
p239
aV Wednesday, November 28, 2012 
p240
aV Monday, November 26, 2012 
p241
aV Wednesday, November 21, 2012 
p242
aV Monday, November 19, 2012 
p243
aV Thursday, November 15, 2012 
p244
aV Tuesday, November 13, 2012 
p245
aV Monday, November 12, 2012 
p246
aV Thursday, November 8, 2012 
p247
aV Wednesday, November 7, 2012 
p248
aV Tuesday, November 6, 2012 
p249
aV Thursday, November 1, 2012 
p250
aV Monday, October 29, 2012 
p251
aV Friday, October 26, 2012 
p252
aV Thursday, October 25, 2012 
p253
aV Wednesday, October 24, 2012 
p254
aV Monday, October 22, 2012 
p255
aV Friday, October 19, 2012 
p256
aV Thursday, October 18, 2012 
p257
aV Wednesday, October 17, 2012 
p258
aV Tuesday, October 16, 2012 
p259
aV Friday, October 12, 2012 
p260
aV Wednesday, October 10, 2012 
p261
aV Tuesday, October 9, 2012 
p262
aV Friday, October 5, 2012 
p263
aV Wednesday, October 3, 2012 
p264
aV Monday, October 1, 2012 
p265
aV Friday, September 28, 2012 
p266
aV Thursday, September 27, 2012 
p267
aV Monday, September 24, 2012 
p268
aV Thursday, September 20, 2012 
p269
aV Tuesday, September 18, 2012 
p270
aV Friday, September 14, 2012 
p271
aV Thursday, September 13, 2012 
p272
aV Thursday, September 13, 2012 
p273
aV Thursday, September 13, 2012 
p274
aV Friday, September 7, 2012 
p275
aV Wednesday, September 5, 2012 
p276
aV Friday, August 31, 2012 
p277
aV Tuesday, August 28, 2012 
p278
aV Friday, August 24, 2012 
p279
aV Tuesday, August 21, 2012 
p280
aV Friday, August 17, 2012 
p281
aV Wednesday, August 15, 2012 
p282
aV Monday, August 13, 2012 
p283
aV Wednesday, August 8, 2012 
p284
aV Friday, August 3, 2012 
p285
aV Wednesday, August 1, 2012 
p286
aV Friday, July 27, 2012 
p287
aV Wednesday, July 25, 2012 
p288
aV Monday, July 23, 2012 
p289
aV Thursday, July 19, 2012 
p290
aV Tuesday, July 17, 2012 
p291
aV Friday, July 13, 2012 
p292
aV Monday, July 9, 2012 
p293
aV Thursday, July 5, 2012 
p294
aV Thursday, June 28, 2012 
p295
aV Tuesday, June 26, 2012 
p296
aV Monday, June 25, 2012 
p297
aV Friday, June 22, 2012 
p298
aV Wednesday, June 20, 2012 
p299
aV Tuesday, June 19, 2012 
p300
aV Monday, June 18, 2012 
p301
aV Thursday, June 14, 2012 
p302
aV Wednesday, June 13, 2012 
p303
aV Monday, June 11, 2012 
p304
aV Thursday, June 7, 2012 
p305
aV Tuesday, June 5, 2012 
p306
aV Monday, June 4, 2012 
p307
aV Friday, June 1, 2012 
p308
aV Wednesday, May 30, 2012 
p309
aV Tuesday, May 29, 2012 
p310
aV Monday, May 28, 2012 
p311
aV Friday, May 25, 2012 
p312
aV Wednesday, May 23, 2012 
p313
aV Monday, May 21, 2012 
p314
aV Friday, May 18, 2012 
p315
aV Wednesday, May 16, 2012 
p316
aV Monday, May 14, 2012 
p317
aV Friday, May 11, 2012 
p318
aV Wednesday, May 9, 2012 
p319
aV Monday, May 7, 2012 
p320
aV Friday, May 4, 2012 
p321
aV Wednesday, May 2, 2012 
p322
aV Monday, April 30, 2012 
p323
aV Friday, April 27, 2012 
p324
aV Wednesday, April 25, 2012 
p325
aV Monday, April 23, 2012 
p326
aV Friday, April 20, 2012 
p327
aV Wednesday, April 18, 2012 
p328
aV Monday, April 16, 2012 
p329
aV Friday, April 13, 2012 
p330
aV Wednesday, April 11, 2012 
p331
aV Tuesday, April 10, 2012 
p332
aV Thursday, April 5, 2012 
p333
aV Monday, April 2, 2012 
p334
aV Thursday, March 29, 2012 
p335
aV Monday, March 26, 2012 
p336
aV Thursday, March 22, 2012 
p337
aV Tuesday, March 20, 2012 
p338
aV Thursday, March 15, 2012 
p339
aV Wednesday, March 14, 2012 
p340
aV Friday, March 9, 2012 
p341
aV Wednesday, March 7, 2012 
p342
aV Monday, March 5, 2012 
p343
aV Thursday, March 1, 2012 
p344
aV Monday, February 27, 2012 
p345
aV Tuesday, February 21, 2012 
p346
aV Friday, February 17, 2012 
p347
aV Tuesday, February 14, 2012 
p348
aV Friday, February 10, 2012 
p349
aV Thursday, February 9, 2012 
p350
aV Wednesday, February 8, 2012 
p351
aV Monday, February 6, 2012 
p352
aV Thursday, February 2, 2012 
p353
aV Tuesday, January 31, 2012 
p354
aV Monday, January 30, 2012 
p355
aV Friday, January 27, 2012 
p356
aV Wednesday, January 25, 2012 
p357
aV Friday, January 20, 2012 
p358
aV Tuesday, January 17, 2012 
p359
aV Thursday, January 12, 2012 
p360
aV Monday, January 9, 2012 
p361
aV Tuesday, December 27, 2011 
p362
aV Thursday, December 22, 2011 
p363
aV Tuesday, December 20, 2011 
p364
aV Monday, December 19, 2011 
p365
aV Friday, December 16, 2011 
p366
aV Thursday, December 15, 2011 
p367
aV Wednesday, December 14, 2011 
p368
aV Tuesday, December 13, 2011 
p369
aV Monday, December 12, 2011 
p370
aV Friday, December 9, 2011 
p371
aV Wednesday, December 7, 2011 
p372
aV Tuesday, December 6, 2011 
p373
aV Friday, December 2, 2011 
p374
aV Wednesday, November 30, 2011 
p375
aV Monday, November 28, 2011 
p376
aV Wednesday, November 23, 2011 
p377
aV Tuesday, November 22, 2011 
p378
aV Monday, November 21, 2011 
p379
aV Thursday, November 17, 2011 
p380
aV Wednesday, November 16, 2011 
p381
aV Monday, November 14, 2011 
p382
aV Thursday, November 10, 2011 
p383
aV Tuesday, November 8, 2011 
p384
aV Monday, November 7, 2011 
p385
aV Thursday, November 3, 2011 
p386
aV Tuesday, November 1, 2011 
p387
aV Wednesday, October 26, 2011 
p388
aV Tuesday, October 25, 2011 
p389
aV Monday, October 24, 2011 
p390
aV Thursday, October 20, 2011 
p391
aV Tuesday, October 18, 2011 
p392
aV Monday, October 17, 2011 
p393
aV Thursday, October 13, 2011 
p394
aV Wednesday, October 12, 2011 
p395
aV Friday, October 7, 2011 
p396
aV Wednesday, October 5, 2011 
p397
aV Tuesday, October 4, 2011 
p398
aV Monday, October 3, 2011 
p399
aV Thursday, September 29, 2011 
p400
aV Monday, September 26, 2011 
p401
aV Friday, September 23, 2011 
p402
aV Thursday, September 22, 2011 
p403
aV Tuesday, September 20, 2011 
p404
aV Thursday, September 15, 2011 
p405
aV Monday, September 12, 2011 
p406
aV Wednesday, September 7, 2011 
p407
aV Tuesday, September 6, 2011 
p408
aV Tuesday, August 30, 2011 
p409
aV Wednesday, August 24, 2011 
p410
aV Tuesday, August 23, 2011 
p411
aV Monday, August 22, 2011 
p412
aV Thursday, August 18, 2011 
p413
aV Tuesday, August 16, 2011 
p414
aV Monday, August 15, 2011 
p415
aV Friday, August 12, 2011 
p416
aV Thursday, August 11, 2011 
p417
aV Tuesday, August 9, 2011 
p418
aV Monday, August 8, 2011 
p419
aV Friday, August 5, 2011 
p420
aV Thursday, August 4, 2011 
p421
aV Tuesday, August 2, 2011 
p422
aV Monday, August 1, 2011 
p423
aV Friday, July 29, 2011 
p424
aV Thursday, July 28, 2011 
p425
aV Tuesday, July 26, 2011 
p426
aV Monday, July 25, 2011 
p427
aV Friday, July 22, 2011 
p428
aV Tuesday, July 19, 2011 
p429
aV Monday, July 18, 2011 
p430
aV Friday, July 15, 2011 
p431
aV Wednesday, July 13, 2011 
p432
aV Tuesday, July 12, 2011 
p433
aV Friday, July 8, 2011 
p434
aV Wednesday, July 6, 2011 
p435
aV Tuesday, July 5, 2011 
p436
aV Friday, July 1, 2011 
p437
aV Wednesday, June 29, 2011 
p438
aV Tuesday, June 28, 2011 
p439
aV Monday, June 27, 2011 
p440
aV Thursday, June 23, 2011 
p441
aV Tuesday, June 21, 2011 
p442
aV Monday, June 20, 2011 
p443
aV Thursday, June 16, 2011 
p444
aV Tuesday, June 14, 2011 
p445
aV Monday, June 13, 2011 
p446
aV Thursday, June 9, 2011 
p447
aV Tuesday, June 7, 2011 
p448
aV Monday, June 6, 2011 
p449
aV Friday, June 3, 2011 
p450
aV Wednesday, June 1, 2011 
p451
aV Tuesday, May 31, 2011 
p452
aV Friday, May 27, 2011 
p453
aV Wednesday, May 25, 2011 
p454
aV Monday, May 23, 2011 
p455
aV Friday, May 20, 2011 
p456
aV Wednesday, May 18, 2011 
p457
aV Tuesday, May 17, 2011 
p458
aV Monday, May 16, 2011 
p459
aV Friday, May 13, 2011 
p460
aV Wednesday, May 11, 2011 
p461
aV Tuesday, May 10, 2011 
p462
aV Monday, May 9, 2011 
p463
aV Friday, May 6, 2011 
p464
aV Wednesday, May 4, 2011 
p465
aV Tuesday, May 3, 2011 
p466
aV Monday, May 2, 2011 
p467
aV Friday, April 29, 2011 
p468
aV Thursday, April 28, 2011 
p469
aV Tuesday, April 26, 2011 
p470
aV Monday, April 25, 2011 
p471
aV Thursday, April 21, 2011 
p472
aV Wednesday, April 20, 2011 
p473
aV Tuesday, April 19, 2011 
p474
aV Monday, April 18, 2011 
p475
aV Friday, April 15, 2011 
p476
aV Thursday, April 14, 2011 
p477
aV Tuesday, April 12, 2011 
p478
aV Monday, April 11, 2011 
p479
aV Thursday, April 7, 2011 
p480
aV Tuesday, April 5, 2011 
p481
aV Monday, April 4, 2011 
p482
aV Thursday, March 31, 2011 
p483
aV Wednesday, March 30, 2011 
p484
aV Monday, March 28, 2011 
p485
aV Thursday, March 24, 2011 
p486
aV Tuesday, March 22, 2011 
p487
aV Monday, March 21, 2011 
p488
aV Friday, March 18, 2011 
p489
aV Thursday, March 17, 2011 
p490
aV Wednesday, March 16, 2011 
p491
aV Monday, March 14, 2011 
p492
aV Friday, March 11, 2011 
p493
aV Tuesday, March 8, 2011 
p494
aV Thursday, March 3, 2011 
p495
aV Wednesday, March 2, 2011 
p496
aV Tuesday, March 1, 2011 
p497
aV Monday, February 28, 2011 
p498
aV Thursday, February 24, 2011 
p499
aV Monday, February 21, 2011 
p500
aV Friday, February 18, 2011 
p501
aV Tuesday, February 15, 2011 
p502
aV Friday, February 11, 2011 
p503
aV Thursday, February 10, 2011 
p504
aV Tuesday, February 8, 2011 
p505
aV Monday, February 7, 2011 
p506
aV Thursday, February 3, 2011 
p507
aV Wednesday, February 2, 2011 
p508
aV Monday, January 31, 2011 
p509
aV Wednesday, January 26, 2011 
p510
aV Monday, January 24, 2011 
p511
aV Thursday, January 20, 2011 
p512
aV Tuesday, January 18, 2011 
p513
aV Monday, January 17, 2011 
p514
aV Thursday, January 13, 2011 
p515
aV Tuesday, January 11, 2011 
p516
aV Monday, January 10, 2011 
p517
aV Wednesday, January 5, 2011 
p518
aV Tuesday, January 4, 2011 
p519
aV Thursday, December 23, 2010 
p520
aV Tuesday, December 21, 2010 
p521
aV Monday, December 20, 2010 
p522
aV Friday, December 17, 2010 
p523
aV Wednesday, December 15, 2010 
p524
aV Tuesday, December 14, 2010 
p525
aV Monday, December 13, 2010 
p526
aV Thursday, December 9, 2010 
p527
aV Tuesday, December 7, 2010 
p528
aV Thursday, December 2, 2010 
p529
aV Wednesday, December 1, 2010 
p530
aV Tuesday, November 30, 2010 
p531
aV Monday, November 29, 2010 
p532
aV Tuesday, November 23, 2010 
p533
aV Monday, November 22, 2010 
p534
aV Friday, November 19, 2010 
p535
aV Thursday, November 18, 2010 
p536
aV Wednesday, November 17, 2010 
p537
aV Tuesday, November 16, 2010 
p538
aV Monday, November 15, 2010 
p539
aV Friday, November 12, 2010 
p540
aV Thursday, November 11, 2010 
p541
aV Tuesday, November 9, 2010 
p542
aV Monday, November 8, 2010 
p543
aV Friday, November 5, 2010 
p544
aV Wednesday, November 3, 2010 
p545
aV Monday, November 1, 2010 
p546
aV Friday, October 29, 2010 
p547
aV Wednesday, October 27, 2010 
p548
aV Monday, October 25, 2010 
p549
aV Friday, October 22, 2010 
p550
aV Thursday, October 21, 2010 
p551
aV Tuesday, October 19, 2010 
p552
aV Monday, October 18, 2010 
p553
aV Friday, October 15, 2010 
p554
aV Wednesday, October 13, 2010 
p555
aV Monday, October 11, 2010 
p556
aV Thursday, October 7, 2010 
p557
aV Tuesday, October 5, 2010 
p558
aV Monday, October 4, 2010 
p559
aV Friday, October 1, 2010 
p560
aV Thursday, September 30, 2010 
p561
aV Tuesday, September 28, 2010 
p562
aV Monday, September 27, 2010 
p563
aV Friday, September 24, 2010 
p564
aV Thursday, September 23, 2010 
p565
aV Tuesday, September 21, 2010 
p566
aV Monday, September 20, 2010 
p567
aV Thursday, September 16, 2010 
p568
aV Tuesday, September 14, 2010 
p569
aV Monday, September 13, 2010 
p570
aV Friday, September 10, 2010 
p571
aV Thursday, September 9, 2010 
p572
aV Wednesday, September 8, 2010 
p573
aV Tuesday, September 7, 2010 
p574
aV Friday, September 3, 2010 
p575
aV Wednesday, September 1, 2010 
p576
aV Tuesday, August 31, 2010 
p577
aV Monday, August 30, 2010 
p578
aV Friday, August 27, 2010 
p579
aV Wednesday, August 25, 2010 
p580
aV Tuesday, August 24, 2010 
p581
aV Monday, August 23, 2010 
p582
aV Friday, August 20, 2010 
p583
aV Thursday, August 19, 2010 
p584
aV Tuesday, August 17, 2010 
p585
aV Monday, August 16, 2010 
p586
aV Thursday, August 12, 2010 
p587
aV Wednesday, August 11, 2010 
p588
aV Tuesday, August 10, 2010 
p589
aV Monday, August 9, 2010 
p590
aV Thursday, August 5, 2010 
p591
aV Wednesday, August 4, 2010 
p592
aV Tuesday, August 3, 2010 
p593
aV Monday, August 2, 2010 
p594
aV Friday, July 30, 2010 
p595
aV Thursday, July 29, 2010 
p596
aV Wednesday, July 28, 2010 
p597
aV Tuesday, July 27, 2010 
p598
aV Monday, July 26, 2010 
p599
aV Thursday, July 22, 2010 
p600
aV Wednesday, July 21, 2010 
p601
aV Tuesday, July 20, 2010 
p602
aV Monday, July 19, 2010 
p603
aV Friday, July 16, 2010 
p604
aV Thursday, July 15, 2010 
p605
aV Tuesday, July 13, 2010 
p606
aV Monday, July 12, 2010 
p607
aV Friday, July 9, 2010 
p608
aV Thursday, July 8, 2010 
p609
aV Wednesday, July 7, 2010 
p610
aV Tuesday, July 6, 2010 
p611
aV Thursday, July 1, 2010 
p612
aV Wednesday, June 30, 2010 
p613
aV Tuesday, June 29, 2010 
p614
aV Monday, June 28, 2010 
p615
aV Thursday, June 24, 2010 
p616
aV Wednesday, June 23, 2010 
p617
aV Tuesday, June 22, 2010 
p618
aV Monday, June 21, 2010 
p619
aV Thursday, June 17, 2010 
p620
aV Wednesday, June 16, 2010 
p621
aV Tuesday, June 15, 2010 
p622
aV Monday, June 14, 2010 
p623
aV Friday, June 11, 2010 
p624
aV Thursday, June 10, 2010 
p625
aV Wednesday, June 9, 2010 
p626
aV Tuesday, June 8, 2010 
p627
aV Monday, June 7, 2010 
p628
aV Friday, June 4, 2010 
p629
aV Wednesday, June 2, 2010 
p630
aV Tuesday, June 1, 2010 
p631
aV Friday, May 28, 2010 
p632
aV Thursday, May 27, 2010 
p633
aV Wednesday, May 26, 2010 
p634
aV Tuesday, May 25, 2010 
p635
aV Monday, May 24, 2010 
p636
aV Friday, May 21, 2010 
p637
aV Thursday, May 20, 2010 
p638
aV Wednesday, May 19, 2010 
p639
aV Tuesday, May 18, 2010 
p640
aV Monday, May 17, 2010 
p641
aV Thursday, May 13, 2010 
p642
aV Wednesday, May 12, 2010 
p643
aV Tuesday, May 11, 2010 
p644
aV Monday, May 10, 2010 
p645
aV Thursday, May 6, 2010 
p646
aV Wednesday, May 5, 2010 
p647
aV Tuesday, May 4, 2010 
p648
aV Monday, May 3, 2010 
p649
aV Thursday, April 29, 2010 
p650
aV Wednesday, April 28, 2010 
p651
aV Tuesday, April 27, 2010 
p652
aV Monday, April 26, 2010 
p653
aV Thursday, April 22, 2010 
p654
aV Wednesday, April 21, 2010 
p655
aV Tuesday, April 20, 2010 
p656
aV Friday, April 16, 2010 
p657
aV Thursday, April 15, 2010 
p658
aV Tuesday, April 13, 2010 
p659
aV Monday, April 12, 2010 
p660
aV Friday, April 9, 2010 
p661
aV Thursday, April 8, 2010 
p662
aV Wednesday, April 7, 2010 
p663
aV Monday, April 5, 2010 
p664
aV Tuesday, March 30, 2010 
p665
aV Friday, March 26, 2010 
p666
aV Wednesday, March 24, 2010 
p667
aV Tuesday, March 23, 2010 
p668
aV Friday, March 19, 2010 
p669
aV Thursday, March 18, 2010 
p670
aV Tuesday, March 16, 2010 
p671
aV Monday, March 15, 2010 
p672
aV Friday, March 12, 2010 
p673
aV Thursday, March 11, 2010 
p674
aV Tuesday, March 9, 2010 
p675
aV Monday, March 8, 2010 
p676
aV Friday, March 5, 2010 
p677
aV Thursday, March 4, 2010 
p678
aV Wednesday, March 3, 2010 
p679
aV Tuesday, March 2, 2010 
p680
aV Monday, March 1, 2010 
p681
aV Friday, February 26, 2010 
p682
aV Thursday, February 25, 2010 
p683
aV Wednesday, February 24, 2010 
p684
aV Monday, February 22, 2010 
p685
aV Friday, February 19, 2010 
p686
aV Thursday, February 18, 2010 
p687
aV Wednesday, February 17, 2010 
p688
aV Tuesday, February 16, 2010 
p689
aV Monday, February 15, 2010 
p690
aV Friday, February 12, 2010 
p691
aV Wednesday, February 10, 2010 
p692
aV Tuesday, February 9, 2010 
p693
aV Monday, February 8, 2010 
p694
aV Thursday, February 4, 2010 
p695
aV Tuesday, February 2, 2010 
p696
aV Monday, February 1, 2010 
p697
aV Friday, January 29, 2010 
p698
aV Wednesday, January 27, 2010 
p699
aV Monday, January 25, 2010 
p700
aV Friday, January 22, 2010 
p701
aV Thursday, January 21, 2010 
p702
aV Tuesday, January 19, 2010 
p703
aV Monday, January 18, 2010 
p704
aV Friday, January 15, 2010 
p705
aV Thursday, January 14, 2010 
p706
aV Tuesday, January 12, 2010 
p707
aV Friday, January 8, 2010 
p708
aV Wednesday, January 6, 2010 
p709
aV Wednesday, December 23, 2009 
p710
aV Tuesday, December 22, 2009 
p711
aV Friday, December 18, 2009 
p712
aV Thursday, December 17, 2009 
p713
aV Tuesday, December 15, 2009 
p714
aV Monday, December 14, 2009 
p715
aV Thursday, December 10, 2009 
p716
aV Wednesday, December 9, 2009 
p717
aV Tuesday, December 8, 2009 
p718
aV Friday, December 4, 2009 
p719
aV Monday, November 30, 2009 
p720
aV Friday, November 27, 2009 
p721
aV Tuesday, November 24, 2009 
p722
aV Monday, November 23, 2009 
p723
aV Thursday, November 19, 2009 
p724
aV Tuesday, November 17, 2009 
p725
aV Monday, November 16, 2009 
p726
aV Thursday, November 12, 2009 
p727
aV Tuesday, November 10, 2009 
p728
aV Monday, November 9, 2009 
p729
aV Friday, November 6, 2009 
p730
aV Wednesday, November 4, 2009 
p731
aV Tuesday, November 3, 2009 
p732
aV Monday, November 2, 2009 
p733
aV Friday, October 30, 2009 
p734
aV Tuesday, October 27, 2009 
p735
aV Monday, October 26, 2009 
p736
aV Thursday, October 22, 2009 
p737
aV Wednesday, October 21, 2009 
p738
aV Tuesday, October 20, 2009 
p739
aV Monday, October 19, 2009 
p740
aV Friday, October 16, 2009 
p741
aV Thursday, October 15, 2009 
p742
aV Wednesday, October 14, 2009 
p743
aV Tuesday, October 13, 2009 
p744
aV Friday, October 9, 2009 
p745
aV Wednesday, October 7, 2009 
p746
aV Monday, October 5, 2009 
p747
aV Thursday, October 1, 2009 
p748
aV Tuesday, September 29, 2009 
p749
aV Monday, September 28, 2009 
p750
aV Thursday, September 24, 2009 
p751
aV Tuesday, September 22, 2009 
p752
aV Monday, September 21, 2009 
p753
aV Thursday, September 17, 2009 
p754
aV Wednesday, September 16, 2009 
p755
aV Tuesday, September 15, 2009 
p756
aV Monday, September 14, 2009 
p757
aV Friday, September 11, 2009 
p758
aV Thursday, September 10, 2009 
p759
aV Tuesday, September 8, 2009 
p760
aV Thursday, September 3, 2009 
p761
aV Tuesday, September 1, 2009 
p762
aV Monday, August 31, 2009 
p763
aV Thursday, August 27, 2009 
p764
aV Tuesday, August 25, 2009 
p765
aV Monday, August 24, 2009 
p766
aV Friday, August 21, 2009 
p767
aV Thursday, August 20, 2009 
p768
aV Tuesday, August 18, 2009 
p769
aV Monday, August 17, 2009 
p770
aV Friday, August 14, 2009 
p771
aV Wednesday, August 12, 2009 
p772
aV Tuesday, August 11, 2009 
p773
aV Monday, August 10, 2009 
p774
aV Thursday, August 6, 2009 
p775
aV Wednesday, August 5, 2009 
p776
aV Friday, July 31, 2009 
p777
aV Thursday, July 30, 2009 
p778
aV Tuesday, July 28, 2009 
p779
aV Monday, July 27, 2009 
p780
aV Friday, July 24, 2009 
p781
aV Thursday, July 23, 2009 
p782
aV Wednesday, July 22, 2009 
p783
aV Tuesday, July 21, 2009 
p784
aV Monday, July 20, 2009 
p785
aV Thursday, July 16, 2009 
p786
aV Tuesday, July 14, 2009 
p787
aV Monday, July 13, 2009 
p788
aV Friday, July 10, 2009 
p789
aV Thursday, July 9, 2009 
p790
aV Wednesday, July 8, 2009 
p791
aV Tuesday, July 7, 2009 
p792
aV Monday, July 6, 2009 
p793
aV Thursday, July 2, 2009 
p794
aV Tuesday, June 30, 2009 
p795
aV Monday, June 29, 2009 
p796
aV Friday, June 26, 2009 
p797
aV Thursday, June 25, 2009 
p798
aV Tuesday, June 23, 2009 
p799
aV Monday, June 22, 2009 
p800
aV Friday, June 19, 2009 
p801
aV Wednesday, June 17, 2009 
p802
aV Tuesday, June 16, 2009 
p803
aV Monday, June 15, 2009 
p804
aV Friday, June 12, 2009 
p805
aV Thursday, June 11, 2009 
p806
aV Wednesday, June 10, 2009 
p807
aV Tuesday, June 9, 2009 
p808
aV Tuesday, June 2, 2009 
p809
aV Monday, June 1, 2009 
p810
aV Thursday, May 28, 2009 
p811
aV Wednesday, May 27, 2009 
p812
aV Tuesday, May 26, 2009 
p813
aV Friday, May 22, 2009 
p814
aV Thursday, May 21, 2009 
p815
aV Wednesday, May 20, 2009 
p816
aV Tuesday, May 19, 2009 
p817
aV Friday, May 15, 2009 
p818
aV Tuesday, May 12, 2009 
p819
aV Friday, May 8, 2009 
p820
aV Wednesday, May 6, 2009 
p821
aV Tuesday, May 5, 2009 
p822
aV Monday, May 4, 2009 
p823
aV Thursday, April 30, 2009 
p824
aV Tuesday, April 28, 2009 
p825
aV Monday, April 27, 2009 
p826
aV Friday, April 24, 2009 
p827
aV Thursday, April 23, 2009 
p828
aV Tuesday, April 21, 2009 
p829
aV Monday, April 20, 2009 
p830
aV Friday, April 17, 2009 
p831
aV Thursday, April 16, 2009 
p832
aV Tuesday, April 14, 2009 
p833
aV Monday, April 13, 2009 
p834
aV Thursday, April 9, 2009 
p835
aV Tuesday, April 7, 2009 
p836
aV Monday, April 6, 2009 
p837
aV Thursday, April 2, 2009 
p838
aV Tuesday, March 31, 2009 
p839
aV Monday, March 30, 2009 
p840
aV Friday, March 27, 2009 
p841
aV Thursday, March 26, 2009 
p842
aV Wednesday, March 25, 2009 
p843
aV Tuesday, March 24, 2009 
p844
aV Monday, March 23, 2009 
p845
aV Wednesday, March 18, 2009 
p846
aV Tuesday, March 17, 2009 
p847
aV Monday, March 16, 2009 
p848
aV Thursday, March 12, 2009 
p849
aV Wednesday, March 11, 2009 
p850
aV Monday, March 9, 2009 
p851
aV Friday, March 6, 2009 
p852
aV Tuesday, March 3, 2009 
p853
aV Monday, March 2, 2009 
p854
aV Tuesday, February 24, 2009 
p855
aV Monday, February 23, 2009 
p856
aV Wednesday, February 18, 2009 
p857
aV Tuesday, February 17, 2009 
p858
aV Friday, February 13, 2009 
p859
aV Wednesday, February 11, 2009 
p860
aV Monday, February 9, 2009 
p861
aV Friday, February 6, 2009 
p862
aV Wednesday, February 4, 2009 
p863
aV Tuesday, February 3, 2009 
p864
aV Friday, January 30, 2009 
p865
aV Wednesday, January 28, 2009 
p866
aV Monday, January 26, 2009 
p867
aV Friday, January 23, 2009 
p868
aV Monday, January 19, 2009 
p869
aV Friday, January 16, 2009 
p870
aV Tuesday, January 13, 2009 
p871
aV Thursday, January 8, 2009 
p872
aV Tuesday, December 30, 2008 
p873
aV Monday, December 29, 2008 
p874
aV Thursday, December 25, 2008 
p875
aV Monday, December 22, 2008 
p876
aV Thursday, December 18, 2008 
p877
aV Wednesday, December 17, 2008 
p878
aV Monday, December 15, 2008 
p879
aV Wednesday, December 10, 2008 
p880
aV Tuesday, December 9, 2008 
p881
aV Monday, December 8, 2008 
p882
aV Thursday, December 4, 2008 
p883
aV Tuesday, December 2, 2008 
p884
aV Monday, December 1, 2008 
p885
aV Wednesday, November 26, 2008 
p886
aV Tuesday, November 25, 2008 
p887
aV Monday, November 24, 2008 
p888
aV Thursday, November 20, 2008 
p889
aV Wednesday, November 19, 2008 
p890
aV Tuesday, November 18, 2008 
p891
aV Monday, November 17, 2008 
p892
aV Thursday, November 13, 2008 
p893
aV Wednesday, November 12, 2008 
p894
aV Tuesday, November 11, 2008 
p895
aV Monday, November 10, 2008 
p896
aV Friday, November 7, 2008 
p897
aV Thursday, November 6, 2008 
p898
aV Wednesday, November 5, 2008 
p899
aV Tuesday, November 4, 2008 
p900
aV Monday, November 3, 2008 
p901
aV Friday, October 31, 2008 
p902
aV Thursday, October 30, 2008 
p903
aV Wednesday, October 29, 2008 
p904
aV Tuesday, October 28, 2008 
p905
aV Monday, October 27, 2008 
p906
aV Friday, October 24, 2008 
p907
aV Thursday, October 23, 2008 
p908
aV Tuesday, October 21, 2008 
p909
aV Monday, October 20, 2008 
p910
aV Friday, October 17, 2008 
p911
aV Thursday, October 16, 2008 
p912
aV Tuesday, October 14, 2008 
p913
aV Friday, October 10, 2008 
p914
aV Thursday, October 9, 2008 
p915
aV Wednesday, October 8, 2008 
p916
aV Tuesday, October 7, 2008 
p917
aV Monday, October 6, 2008 
p918
aV Thursday, October 2, 2008 
p919
aV Wednesday, October 1, 2008 
p920
aV Tuesday, September 30, 2008 
p921
aV Monday, September 29, 2008 
p922
aV Thursday, September 25, 2008 
p923
aV Tuesday, September 23, 2008 
p924
aV Monday, September 22, 2008 
p925
aV Thursday, September 18, 2008 
p926
aV Tuesday, September 16, 2008 
p927
aV Monday, September 15, 2008 
p928
aV Thursday, September 11, 2008 
p929
aV Tuesday, September 9, 2008 
p930
aV Monday, September 8, 2008 
p931
aV Friday, September 5, 2008 
p932
aV Wednesday, September 3, 2008 
p933
aV Tuesday, September 2, 2008 
p934
aV Thursday, August 28, 2008 
p935
aV Wednesday, August 27, 2008 
p936
aV Tuesday, August 26, 2008 
p937
aV Monday, August 25, 2008 
p938
aV Thursday, August 21, 2008 
p939
aV Tuesday, August 19, 2008 
p940
aV Monday, August 18, 2008 
p941
aV Friday, August 15, 2008 
p942
aV Thursday, August 14, 2008 
p943
aV Tuesday, August 12, 2008 
p944
aV Monday, August 11, 2008 
p945
aV Thursday, August 7, 2008 
p946
aV Tuesday, August 5, 2008 
p947
aV Monday, August 4, 2008 
p948
aV Friday, August 1, 2008 
p949
aV Thursday, July 31, 2008 
p950
aV Wednesday, July 30, 2008 
p951
aV Monday, July 28, 2008 
p952
aV Friday, July 25, 2008 
p953
aV Thursday, July 24, 2008 
p954
aV Tuesday, July 22, 2008 
p955
aV Monday, July 21, 2008 
p956
aV Thursday, July 17, 2008 
p957
aV Wednesday, July 16, 2008 
p958
aV Tuesday, July 15, 2008 
p959
aV Monday, July 14, 2008 
p960
aV Thursday, July 10, 2008 
p961
aV Tuesday, July 8, 2008 
p962
aV Monday, July 7, 2008 
p963
aV Thursday, July 3, 2008 
p964
aV Tuesday, July 1, 2008 
p965
aV Monday, June 30, 2008 
p966
aV Thursday, June 26, 2008 
p967
aV Wednesday, June 25, 2008 
p968
aV Tuesday, June 24, 2008 
p969
aV Monday, June 23, 2008 
p970
aV Thursday, June 19, 2008 
p971
aV Wednesday, June 18, 2008 
p972
aV Tuesday, June 17, 2008 
p973
aV Monday, June 16, 2008 
p974
aV Thursday, June 12, 2008 
p975
aV Wednesday, June 11, 2008 
p976
aV Thursday, June 5, 2008 
p977
aV Wednesday, June 4, 2008 
p978
aV Tuesday, June 3, 2008 
p979
aV Monday, June 2, 2008 
p980
aV Thursday, May 29, 2008 
p981
aV Wednesday, May 28, 2008 
p982
aV Tuesday, May 27, 2008 
p983
aV Friday, May 23, 2008 
p984
aV Thursday, May 22, 2008 
p985
aV Wednesday, May 21, 2008 
p986
aV Tuesday, May 20, 2008 
p987
aV Monday, May 19, 2008 
p988
aV Friday, May 16, 2008 
p989
aV Wednesday, May 14, 2008 
p990
aV Tuesday, May 13, 2008 
p991
aV Monday, May 12, 2008 
p992
aV Friday, May 9, 2008 
p993
aV Thursday, May 8, 2008 
p994
aV Tuesday, May 6, 2008 
p995
aV Monday, May 5, 2008 
p996
aV Thursday, May 1, 2008 
p997
aV Wednesday, April 30, 2008 
p998
aV Tuesday, April 29, 2008 
p999
aV Friday, April 25, 2008 
p1000
aV Thursday, April 24, 2008 
p1001
aV Wednesday, April 23, 2008 
p1002
aV Tuesday, April 22, 2008 
p1003
aV Monday, April 21, 2008 
p1004
aV Wednesday, April 16, 2008 
p1005
aV Tuesday, April 15, 2008 
p1006
aV Monday, April 14, 2008 
p1007
aV Thursday, April 10, 2008 
p1008
aV Tuesday, April 8, 2008 
p1009
aV Monday, April 7, 2008 
p1010
aV Thursday, April 3, 2008 
p1011
aV Tuesday, April 1, 2008 
p1012
aV Monday, March 31, 2008 
p1013
aV Friday, March 28, 2008 
p1014
aV Thursday, March 27, 2008 
p1015
aV Tuesday, March 25, 2008 
p1016
aV Monday, March 24, 2008 
p1017
aV Friday, March 21, 2008 
p1018
aV Thursday, March 20, 2008 
p1019
aV Wednesday, March 19, 2008 
p1020
aV Tuesday, March 18, 2008 
p1021
aV Monday, March 17, 2008 
p1022
aV Friday, March 14, 2008 
p1023
aV Wednesday, March 12, 2008 
p1024
aV Monday, March 10, 2008 
p1025
aV Thursday, March 6, 2008 
p1026
aV Wednesday, March 5, 2008 
p1027
aV Tuesday, March 4, 2008 
p1028
aV Monday, March 3, 2008 
p1029
aV Thursday, February 28, 2008 
p1030
aV Tuesday, February 26, 2008 
p1031
aV Monday, February 25, 2008 
p1032
aV Thursday, February 21, 2008 
p1033
aV Tuesday, February 19, 2008 
p1034
aV Friday, February 15, 2008 
p1035
aV Thursday, February 14, 2008 
p1036
aV Tuesday, February 12, 2008 
p1037
aV Monday, February 11, 2008 
p1038
aV Wednesday, February 6, 2008 
p1039
aV Thursday, January 31, 2008 
p1040
aV Tuesday, January 29, 2008 
p1041
aV Monday, January 28, 2008 
p1042
aV Tuesday, January 22, 2008 
p1043
aV Thursday, January 17, 2008 
p1044
aV Tuesday, January 15, 2008 
p1045
aV Monday, January 14, 2008 
p1046
aV Friday, January 11, 2008 
p1047
aV Thursday, January 3, 2008 
p1048
aV Tuesday, December 18, 2007 
p1049
aV Monday, December 17, 2007 
p1050
aV Friday, December 14, 2007 
p1051
aV Wednesday, December 12, 2007 
p1052
aV Tuesday, December 11, 2007 
p1053
aV Monday, December 10, 2007 
p1054
aV Thursday, December 6, 2007 
p1055
aV Tuesday, December 4, 2007 
p1056
aV Monday, December 3, 2007 
p1057
aV Friday, November 30, 2007 
p1058
aV Thursday, November 29, 2007 
p1059
aV Wednesday, November 28, 2007 
p1060
aV Tuesday, November 27, 2007 
p1061
aV Wednesday, November 21, 2007 
p1062
aV Tuesday, November 20, 2007 
p1063
aV Monday, November 19, 2007 
p1064
aV Friday, November 16, 2007 
p1065
aV Thursday, November 15, 2007 
p1066
aV Wednesday, November 14, 2007 
p1067
aV Tuesday, November 13, 2007 
p1068
aV Monday, November 12, 2007 
p1069
aV Friday, November 9, 2007 
p1070
aV Thursday, November 8, 2007 
p1071
aV Tuesday, November 6, 2007 
p1072
aV Monday, November 5, 2007 
p1073
aV Thursday, November 1, 2007 
p1074
aV Wednesday, October 31, 2007 
p1075
aV Tuesday, October 30, 2007 
p1076
aV Monday, October 29, 2007 
p1077
aV Friday, October 26, 2007 
p1078
aV Tuesday, October 23, 2007 
p1079
aV Monday, October 22, 2007 
p1080
aV Thursday, October 18, 2007 
p1081
aV Tuesday, October 16, 2007 
p1082
aV Monday, October 15, 2007 
p1083
aV Thursday, October 11, 2007 
p1084
aV Tuesday, October 9, 2007 
p1085
aV Thursday, October 4, 2007 
p1086
aV Wednesday, October 3, 2007 
p1087
aV Monday, October 1, 2007 
p1088
aV Thursday, September 27, 2007 
p1089
aV Tuesday, September 25, 2007 
p1090
aV Monday, September 24, 2007 
p1091
aV Thursday, September 20, 2007 
p1092
aV Wednesday, September 19, 2007 
p1093
aV Tuesday, September 18, 2007 
p1094
aV Monday, September 17, 2007 
p1095
aV Thursday, September 13, 2007 
p1096
aV Tuesday, September 11, 2007 
p1097
aV Monday, September 10, 2007 
p1098
aV Wednesday, September 5, 2007 
p1099
aV Tuesday, September 4, 2007 
p1100
aV Tuesday, August 28, 2007 
p1101
aV Monday, August 27, 2007 
p1102
aV Friday, August 24, 2007 
p1103
aV Wednesday, August 22, 2007 
p1104
aV Tuesday, August 21, 2007 
p1105
aV Thursday, August 16, 2007 
p1106
aV Wednesday, August 15, 2007 
p1107
aV Tuesday, August 14, 2007 
p1108
aV Monday, August 13, 2007 
p1109
aV Thursday, August 9, 2007 
p1110
aV Wednesday, August 8, 2007 
p1111
aV Monday, August 6, 2007 
p1112
aV Friday, August 3, 2007 
p1113
aV Wednesday, August 1, 2007 
p1114
aV Friday, July 27, 2007 
p1115
aV Thursday, July 26, 2007 
p1116
aV Tuesday, July 24, 2007 
p1117
aV Monday, July 23, 2007 
p1118
aV Thursday, July 19, 2007 
p1119
aV Wednesday, July 18, 2007 
p1120
aV Tuesday, July 17, 2007 
p1121
aV Monday, July 16, 2007 
p1122
aV Thursday, July 12, 2007 
p1123
aV Tuesday, July 10, 2007 
p1124
aV Monday, July 9, 2007 
p1125
aV Friday, July 6, 2007 
p1126
aV Thursday, July 5, 2007 
p1127
aV Tuesday, July 3, 2007 
p1128
aV Monday, July 2, 2007 
p1129
aV Friday, June 29, 2007 
p1130
aV Thursday, June 28, 2007 
p1131
aV Wednesday, June 27, 2007 
p1132
aV Tuesday, June 26, 2007 
p1133
aV Monday, June 25, 2007 
p1134
aV Thursday, June 21, 2007 
p1135
aV Wednesday, June 20, 2007 
p1136
aV Monday, June 4, 2007 
p1137
aV Monday, June 4, 2007 
p1138
aV Friday, June 1, 2007 
p1139
aV Wednesday, May 30, 2007 
p1140
aV Tuesday, May 29, 2007 
p1141
aV Friday, May 25, 2007 
p1142
aV Thursday, May 24, 2007 
p1143
aV Wednesday, May 23, 2007 
p1144
aV Tuesday, May 22, 2007 
p1145
aV Monday, May 21, 2007 
p1146
aV Thursday, May 17, 2007 
p1147
aV Wednesday, May 16, 2007 
p1148
aV Tuesday, May 15, 2007 
p1149
aV Monday, May 14, 2007 
p1150
aV Friday, May 11, 2007 
p1151
aV Thursday, May 10, 2007 
p1152
aV Wednesday, May 9, 2007 
p1153
aV Tuesday, May 8, 2007 
p1154
aV Monday, May 7, 2007 
p1155
aV Friday, May 4, 2007 
p1156
aV Thursday, May 3, 2007 
p1157
aV Wednesday, May 2, 2007 
p1158
aV Tuesday, May 1, 2007 
p1159
aV Monday, April 30, 2007 
p1160
aV Friday, April 27, 2007 
p1161
aV Thursday, April 26, 2007 
p1162
aV Wednesday, April 25, 2007 
p1163
aV Tuesday, April 24, 2007 
p1164
aV Monday, April 23, 2007 
p1165
aV Friday, April 20, 2007 
p1166
aV Wednesday, April 18, 2007 
p1167
aV Monday, April 16, 2007 
p1168
aV Thursday, April 12, 2007 
p1169
aV Monday, April 9, 2007 
p1170
aV Monday, April 9, 2007 
p1171
aV Wednesday, April 4, 2007 
p1172
aV Tuesday, April 3, 2007 
p1173
aV Monday, April 2, 2007 
p1174
aV Thursday, March 29, 2007 
p1175
aV Wednesday, March 28, 2007 
p1176
aV Tuesday, March 27, 2007 
p1177
aV Monday, March 26, 2007 
p1178
aV Friday, March 23, 2007 
p1179
aV Tuesday, March 20, 2007 
p1180
aV Tuesday, March 20, 2007 
p1181
aV Sunday, March 18, 2007 
p1182
aV Thursday, March 15, 2007 
p1183
aV Monday, March 12, 2007 
p1184
aV Tuesday, March 6, 2007 
p1185
aV Monday, March 5, 2007 
p1186
aV Monday, March 5, 2007 
p1187
aV Sunday, March 4, 2007 
p1188
aV Sunday, March 4, 2007 
p1189
aV Sunday, March 4, 2007 
p1190
aV Sunday, March 4, 2007 
p1191
aV Sunday, March 4, 2007 
p1192
aV Wednesday, February 21, 2007 
p1193
a.