(lp1
Vhttp://www.newyorksocialdiary.com/party-pictures/2013/hampton-arrivals
p2
aVhttp://www.newyorksocialdiary.com/party-pictures/2012/holiday-benefits
p3
aVhttp://www.newyorksocialdiary.com/party-pictures/2008/calvin-kleins-40th-anniversary-event
p4
aVhttp://www.newyorksocialdiary.com/party-pictures/2010/twas-the-night-before-christmas
p5
aVhttp://www.newyorksocialdiary.com/party-pictures/2007/summer-wrap
p6
aVhttp://www.newyorksocialdiary.com/party-pictures/2013/wild-in-the-city
p7
aVhttp://www.newyorksocialdiary.com/party-pictures/2012/the-last-of-the-parties-for-2012
p8
aVhttp://www.newyorksocialdiary.com/party-pictures/2010/a-tribute-to-mr-lagerfeld
p9
aVhttp://www.newyorksocialdiary.com/party-pictures/2012/shows-and-showings
p10
aVhttp://www.newyorksocialdiary.com/party-pictures/2013/summer-gatherings
p11
aVhttp://www.newyorksocialdiary.com/party-pictures/2010/weekends-in-the-hamptons-weekdays-in-manhattan
p12
aVhttp://www.newyorksocialdiary.com/party-pictures/2008/mane-events-in-the-hamptons
p13
aVhttp://www.newyorksocialdiary.com/party-pictures/2010/socially-obligatory-for-one-reason-or-another
p14
aVhttp://www.newyorksocialdiary.com/party-pictures/2011/annual-luncheons-dinners-and-drinks
p15
aVhttp://www.newyorksocialdiary.com/party-pictures/2010/summer-saturday-afternoons
p16
aVhttp://www.newyorksocialdiary.com/party-pictures/2012/awards-season
p17
aVhttp://www.newyorksocialdiary.com/party-pictures/2010/goings-on-around-town
p18
aVhttp://www.newyorksocialdiary.com/party-pictures/2013/spring-gala-galore
p19
aVhttp://www.newyorksocialdiary.com/party-pictures/2011/adventures-in-new-york
p20
aVhttp://www.newyorksocialdiary.com/party-pictures/2012/sons-and-daughters
p21
aVhttp://www.newyorksocialdiary.com/party-pictures/2008/more-new-years-eve
p22
aVhttp://www.newyorksocialdiary.com/party-pictures/2010/art-for-life-in-the-hamptons
p23
aVhttp://www.newyorksocialdiary.com/party-pictures/2010/more-from-the-28th-annual-hat-luncheon
p24
aVhttp://www.newyorksocialdiary.com/party-pictures/2008/art-crushes
p25
aVhttp://www.newyorksocialdiary.com/party-pictures/2011/curtain-calls
p26
aVhttp://www.newyorksocialdiary.com/party-pictures/2010/south-of-the-mason-dixon-line
p27
aVhttp://www.newyorksocialdiary.com/party-pictures/2007/guild-hall-and-the-community-coalition
p28
aVhttp://www.newyorksocialdiary.com/party-pictures/2009/another-hampton-classic
p29
aVhttp://www.newyorksocialdiary.com/party-pictures/2010/awards-for-excellence
p30
aVhttp://www.newyorksocialdiary.com/party-pictures/2012/summer-garden-parties
p31
aVhttp://www.newyorksocialdiary.com/party-pictures/2013/invitation-only-previews-0
p32
aVhttp://www.newyorksocialdiary.com/party-pictures/2012/20th-hamptons-international-film-festival
p33
aVhttp://www.newyorksocialdiary.com/party-pictures/2010/scenes-from-chicago-palm-beach-and-la
p34
aVhttp://www.newyorksocialdiary.com/party-pictures/2009/on-with-fashion-week
p35
aVhttp://www.newyorksocialdiary.com/party-pictures/2014/artists-for-conservation
p36
aVhttp://www.newyorksocialdiary.com/party-pictures/2010/a-big-draw-for-big-names
p37
aVhttp://www.newyorksocialdiary.com/party-pictures/2013/bobs-big-bash-at-watermill-center
p38
aVhttp://www.newyorksocialdiary.com/party-pictures/2010/new-york-salutes
p39
aVhttp://www.newyorksocialdiary.com/party-pictures/2013/bideawee-ball-2013
p40
aVhttp://www.newyorksocialdiary.com/party-pictures/2009/equality-now
p41
aVhttp://www.newyorksocialdiary.com/party-pictures/2010/the-museum-dance
p42
aVhttp://www.newyorksocialdiary.com/party-pictures/2012/awards-in-leadership
p43
aVhttp://www.newyorksocialdiary.com/party-pictures/2007/riffs-on-hats
p44
aVhttp://www.newyorksocialdiary.com/party-pictures/2009/fashion-week-ongoing
p45
aVhttp://www.newyorksocialdiary.com/party-pictures/2010/the-history-makers
p46
aVhttp://www.newyorksocialdiary.com/party-pictures/2010/scenes-from-the-hamptons-to-the-cape
p47
aVhttp://www.newyorksocialdiary.com/party-pictures/2012/millinery-miracles-at-the-30th-annual-flo-awards-luncheon
p48
aVhttp://www.newyorksocialdiary.com/party-pictures/2013/faithful-support
p49
aVhttp://www.newyorksocialdiary.com/party-pictures/2010/more-summer-fun
p50
aVhttp://www.newyorksocialdiary.com/party-pictures/2010/new-yorkers-for-children
p51
aVhttp://www.newyorksocialdiary.com/party-pictures/2008/the-wedding-of-lisa-helene-meiland-and-andrew-james-martin
p52
aVhttp://www.newyorksocialdiary.com/party-pictures/2008/fashion-rocks-with-patrick-mcmullan
p53
aVhttp://www.newyorksocialdiary.com/party-pictures/2010/vital-voices
p54
aVhttp://www.newyorksocialdiary.com/party-pictures/2010/enchanted-evenings
p55
aVhttp://www.newyorksocialdiary.com/party-pictures/2009/a-listers
p56
aVhttp://www.newyorksocialdiary.com/party-pictures/2013/55th-annual-southampton-hospital-gala
p57
aVhttp://www.newyorksocialdiary.com/party-pictures/2009/horse-competition-social-events-shopping-and-country-fun
p58
aVhttp://www.newyorksocialdiary.com/party-pictures/2009/playing-it-safe
p59
aVhttp://www.newyorksocialdiary.com/party-pictures/2009/the-wedding-of-anna-kennedy-and-michael-safir
p60
aVhttp://www.newyorksocialdiary.com/party-pictures/2013/lighting-up-the-holidays
p61
aVhttp://www.newyorksocialdiary.com/party-pictures/2010/independence-and-verve
p62
aVhttp://www.newyorksocialdiary.com/party-pictures/2010/from-montauk-to-nashville-to-palm-beach
p63
aVhttp://www.newyorksocialdiary.com/party-pictures/2010/strides-for-life
p64
aVhttp://www.newyorksocialdiary.com/party-pictures/2010/nysd-archive-party-pictures
p65
aVhttp://www.newyorksocialdiary.com/party-pictures/2010/dressed-for-the-occasion
p66
aVhttp://www.newyorksocialdiary.com/party-pictures/2013/invitation-only-previews
p67
aVhttp://www.newyorksocialdiary.com/party-pictures/2011/la-dinner-parties-and-hamptons-hoedowns
p68
aVhttp://www.newyorksocialdiary.com/party-pictures/2012/gala-extravaganzas
p69
aVhttp://www.newyorksocialdiary.com/party-pictures/2011/the-56th-international-debutante-ball
p70
aVhttp://www.newyorksocialdiary.com/party-pictures/2010/hamptons-exhibitions-book-parties-and-living-memorials
p71
aVhttp://www.newyorksocialdiary.com/party-pictures/2010/rolling-out-the-red-carpet
p72
aVhttp://www.newyorksocialdiary.com/party-pictures/2011/first-responders
p73
aVhttp://www.newyorksocialdiary.com/party-pictures/2010/sidewalks-of-new-york
p74
aVhttp://www.newyorksocialdiary.com/party-pictures/2010/dog-days-afternoons-and-evenings
p75
aVhttp://www.newyorksocialdiary.com/party-pictures/2009/winecrush-in-aspen
p76
aVhttp://www.newyorksocialdiary.com/party-pictures/2010/summer-events-in-the-hamptons
p77
aVhttp://www.newyorksocialdiary.com/party-pictures/2012/season-openers
p78
aVhttp://www.newyorksocialdiary.com/party-pictures/2010/saturday-in-the-hamptons
p79
aVhttp://www.newyorksocialdiary.com/party-pictures/2010/celebrating-the-new-decade
p80
aVhttp://www.newyorksocialdiary.com/party-pictures/2007/dressed-to-kilt-dressing
p81
aVhttp://www.newyorksocialdiary.com/party-pictures/2013/the-31st-annual-frederick-law-olmsted-awards-luncheon
p82
aVhttp://www.newyorksocialdiary.com/party-pictures/2009/summer-sun-and-fun
p83
aVhttp://www.newyorksocialdiary.com/party-pictures/2007/wild-west-on-the-east-coast
p84
aVhttp://www.newyorksocialdiary.com/party-pictures/2012/the-horsey-set
p85
aVhttp://www.newyorksocialdiary.com/party-pictures/2008/summer-and-tropical-thunder
p86
aVhttp://www.newyorksocialdiary.com/party-pictures/2012/ultimate-new-york
p87
aVhttp://www.newyorksocialdiary.com/party-pictures/2010/one-time-only
p88
aVhttp://www.newyorksocialdiary.com/party-pictures/2010/restoration-and-redemption
p89
aVhttp://www.newyorksocialdiary.com/party-pictures/2010/one-to-world
p90
aVhttp://www.newyorksocialdiary.com/party-pictures/2010/new-york-restoration
p91
aVhttp://www.newyorksocialdiary.com/party-pictures/2010/living-legends
p92
aVhttp://www.newyorksocialdiary.com/party-pictures/2010/watermill-centers-paradiso
p93
aVhttp://www.newyorksocialdiary.com/party-pictures/2011/summer-soirees
p94
aVhttp://www.newyorksocialdiary.com/party-pictures/2012/for-the-kids
p95
aVhttp://www.newyorksocialdiary.com/party-pictures/2008/marc-jacobs-rules
p96
aVhttp://www.newyorksocialdiary.com/party-pictures/2010/summer-season-soirees
p97
aVhttp://www.newyorksocialdiary.com/party-pictures/2010/the-grandest-of-openings
p98
aVhttp://www.newyorksocialdiary.com/party-pictures/2011/save-a-life
p99
aVhttp://www.newyorksocialdiary.com/party-pictures/2009/the-fall-season-begins-all-over-the-map
p100
aVhttp://www.newyorksocialdiary.com/party-pictures/2011/best-showings
p101
aVhttp://www.newyorksocialdiary.com/party-pictures/2011/summer-songs
p102
aVhttp://www.newyorksocialdiary.com/party-pictures/2012/the-new-york-restoration-project-spring-picnic
p103
aVhttp://www.newyorksocialdiary.com/party-pictures/2009/taking-strides-for-life
p104
aVhttp://www.newyorksocialdiary.com/party-pictures/2010/fashion-art-and-literature
p105
aVhttp://www.newyorksocialdiary.com/party-pictures/2010/summer-solstice
p106
aVhttp://www.newyorksocialdiary.com/party-pictures/2014/does-anyone-still-wear-a-hat
p107
aVhttp://www.newyorksocialdiary.com/party-pictures/2010/on-the-great-lawn-and-in-the-big-city
p108
aVhttp://www.newyorksocialdiary.com/party-pictures/2008/hampton-summers
p109
aVhttp://www.newyorksocialdiary.com/party-pictures/2011/high-honors
p110
aVhttp://www.newyorksocialdiary.com/party-pictures/2011/variations-on-a-theme
p111
aVhttp://www.newyorksocialdiary.com/party-pictures/2010/celebrations
p112
aVhttp://www.newyorksocialdiary.com/party-pictures/2008/open-eras
p113
aVhttp://www.newyorksocialdiary.com/party-pictures/2011/mr-lauren-and-mr-broadway-lead-the-way
p114
aVhttp://www.newyorksocialdiary.com/party-pictures/2009/jumping-and-singing
p115
aVhttp://www.newyorksocialdiary.com/party-pictures/2012/annual-honors
p116
aVhttp://www.newyorksocialdiary.com/party-pictures/2012/body-of-work
p117
aVhttp://www.newyorksocialdiary.com/party-pictures/2010/make-history-galas-and-gala-kick-offs
p118
aVhttp://www.newyorksocialdiary.com/party-pictures/2010/luncheon-fashion-presentation-and-cfda-celebration
p119
aVhttp://www.newyorksocialdiary.com/party-pictures/2013/ellys-and-extravaganzas
p120
aVhttp://www.newyorksocialdiary.com/party-pictures/2008/peace-love-joy-happiness
p121
aVhttp://www.newyorksocialdiary.com/party-pictures/2010/playwrights-photographers-and-polo-players
p122
aVhttp://www.newyorksocialdiary.com/party-pictures/2009/the-art-of-fashion-in-the-hamptons
p123
aVhttp://www.newyorksocialdiary.com/party-pictures/2010/good-agendas
p124
aVhttp://www.newyorksocialdiary.com/party-pictures/2013/amongst-the-throng
p125
aVhttp://www.newyorksocialdiary.com/party-pictures/2013/swanning-with-adrian
p126
aVhttp://www.newyorksocialdiary.com/party-pictures/2013/swanning-with-adrian-0
p127
aVhttp://www.newyorksocialdiary.com/party-pictures/2010/women-of-distinction
p128
aVhttp://www.newyorksocialdiary.com/party-pictures/2010/summer-season-in-full-swing
p129
aVhttp://www.newyorksocialdiary.com/party-pictures/2010/the-happy-crowd
p130
aVhttp://www.newyorksocialdiary.com/party-pictures/2011/taste-of-summer
p131
aVhttp://www.newyorksocialdiary.com/party-pictures/2008/in-the-land-of-rsvp
p132
aVhttp://www.newyorksocialdiary.com/party-pictures/2010/more-gala-kick-offs-and-celebrations
p133
aVhttp://www.newyorksocialdiary.com/party-pictures/2012/a-summer-wedding-beth-butler-and-christopher-james
p134
aVhttp://www.newyorksocialdiary.com/party-pictures/2010/the-annual-conservatory-ball-at-the-new-york-botanical-garden
p135
aVhttp://www.newyorksocialdiary.com/party-pictures/2013/on-off-the-ground
p136
aVhttp://www.newyorksocialdiary.com/party-pictures/2012/lighting-up-lives-0
p137
aVhttp://www.newyorksocialdiary.com/party-pictures/2009/hamptons-happenings
p138
aVhttp://www.newyorksocialdiary.com/party-pictures/2008/welcome-to-the-wonderful-world-of-the-nysd
p139
aVhttp://www.newyorksocialdiary.com/party-pictures/2010/spring-gala-time
p140
aVhttp://www.newyorksocialdiary.com/party-pictures/2009/best-buddies
p141
aVhttp://www.newyorksocialdiary.com/party-pictures/2008/26th-annual-frederick-law-olmsted-awards-luncheon
p142
aVhttp://www.newyorksocialdiary.com/party-pictures/2011/summer-afternoons
p143
aVhttp://www.newyorksocialdiary.com/party-pictures/2010/dance-with-the-dancers
p144
aVhttp://www.newyorksocialdiary.com/party-pictures/2009/wild-wild-east
p145
aVhttp://www.newyorksocialdiary.com/party-pictures/2010/black-tie-dinner-dances-and-playground-parties
p146
aVhttp://www.newyorksocialdiary.com/party-pictures/2009/works-on-paper-and-the-big-screen
p147
aVhttp://www.newyorksocialdiary.com/party-pictures/2012/summer-lovin
p148
a.