(lp1
((VGillian Miniter
p2
VSylvester Miniter
p3
tp4
I124
tp5
a((VBonnie Comley
p6
VStewart Lane
p7
tp8
I87
tp9
a((VJamee Gregory
p10
VPeter Gregory
p11
tp12
I77
tp13
a((VAndrew Saffir
p14
VDaniel Benedict
p15
tp16
I69
tp17
a((VDayssi Olarte
p18
VKanavos
p19
tp20
I68
tp21
a((VGeoffrey Bradfield
p22
VRoric Tobin
p23
tp24
I68
tp25
a((VJean Shafiroff
p26
VMartin Shafiroff
p27
tp28
I61
tp29
a((VBarbara Tober
p30
VDonald Tober
p31
tp32
I59
tp33
a((VJonathan Farkas
p34
VSomers Farkas
p35
tp36
I56
tp37
a((VAlexandra Lebenthal
p38
VJay Diamond
p39
tp40
I54
tp41
a((VCampion Platt
p42
VTatiana Platt
p43
tp44
I52
tp45
a((VJonathan Tisch
p46
VLizzie Tisch
p47
tp48
I48
tp49
a((VJohn Catsimatidis
p50
VMargo Catsimatidis
p51
tp52
I48
tp53
a((VEleanora Kennedy
p54
VMichael Kennedy
p55
tp56
I45
tp57
a((VValentin Hernandez
p58
VYaz Hernandez
p59
tp60
I44
tp61
a((VChris Meigher
p62
VGrace Meigher
p63
tp64
I44
tp65
a((VBarbara Regna
p66
VPeter Regna
p67
tp68
I43
tp69
a((VChappy Morris
p70
VMelissa Morris
p71
tp72
I42
tp73
a((VElizabeth Stribling
p74
VGuy Robinson
p75
tp76
I40
tp77
a((VDeborah Norville
p78
VKarl Wellner
p79
tp80
I39
tp81
a((VFernanda Kellogg
p82
VKirk Henckels
p83
tp84
I37
tp85
a((VDavid Koch
p86
VJulia Koch
p87
tp88
I37
tp89
a((VGeary Ross
p90
VWilbur Ross
p91
tp92
I37
tp93
a((VGuardiola
p94
VJoanne
p95
tp96
I37
tp97
a((VCouri Hay
p98
VJanna Bullock
p99
tp100
I33
tp101
a((VDouglas Hannant
p102
VFrederick Anderson
p103
tp104
I32
tp105
a((VDiane
p106
VFurstenberg
p107
tp108
I32
tp109
a((VArie Kopelman
p110
VCoco Kopelman
p111
tp112
I32
tp113
a((VRichthofen
p114
VSessa
p115
tp116
I30
tp117
a((VDennis Basso
p118
VMichael Cominotto
p119
tp120
I30
tp121
a((VCharles Cohen
p122
VClo Cohen
p123
tp124
I29
tp125
a((VHospital
p126
VSurgery
p127
tp128
I29
tp129
a((VCynthia Lufkin
p130
VDan Lufkin
p131
tp132
I29
tp133
a((VLeonel Piraino
p134
VNina Griscom
p135
tp136
I28
tp137
a((VHearst McInerney
p138
VJay McInerney
p139
tp140
I28
tp141
a((VDonald Trump
p142
VMelania Trump
p143
tp144
I27
tp145
a((VDimitri
p146
VYugoslavia
p147
tp148
I27
tp149
a((VJohannes Huebl
p150
VOlivia Palermo
p151
tp152
I27
tp153
a((VOscar
p154
VRenta
p155
tp156
I27
tp157
a((VArlene Dahl
p158
VMarc Rosen
p159
tp160
I26
tp161
a((VHunt Slonem
p162
VLiliana Cavendish
p163
tp164
I25
tp165
a((VDee Ocleppo
p166
VTommy Hilfiger
p167
tp168
I25
tp169
a((VChuck Scarborough
p170
VEllen Scarborough
p171
tp172
I25
tp173
a((VAlina Cho
p174
VJohn Demsey
p175
tp176
I25
tp177
a((VJames Mischka
p178
VMark Badgley
p179
tp180
I25
tp181
a((VHarry Slatkin
p182
VLaura Slatkin
p183
tp184
I24
tp185
a((VKathy Prounis
p186
VOthon Prounis
p187
tp188
I24
tp189
a((VRichard Johnson
p190
g115
tp191
I24
tp192
a((VPotter Aston
p193
VSherrell Aston
p194
tp195
I24
tp196
a((VBoni
p197
VGraziano
p198
tp199
I24
tp200
a((VJean Doyen
p201
VMichael Kovner
p202
tp203
I24
tp204
a((VHilary Ross
p205
VWilbur Ross
p206
tp207
I23
tp208
a((VShirin
p209
VWulffen
p210
tp211
I23
tp212
a((VDonna Soloway
p213
VRichard Soloway
p214
tp215
I23
tp216
a((VMarvin Davidson
p217
VMary Davidson
p218
tp219
I22
tp220
a((VJeff Peek
p221
VLiz Peek
p222
tp223
I22
tp224
a((VCountess LuAnn
p225
VLesseps
p226
tp227
I22
tp228
a((VFrancine LeFrak
p229
VRick Friedberg
p230
tp231
I22
tp232
a((VDiana Taylor
p233
VMichael Bloomberg
p234
tp235
I22
tp236
a((VCancer Center
p237
VSociety Center
p238
tp239
I22
tp240
a((VDavid Lauren
p241
VLauren Bush
p242
tp243
I22
tp244
a((VJohn Wambold
p245
VMelanie Wambold
p246
tp247
I22
tp248
a((VJean Shafiroff
p249
VPatricia Shiah
p250
tp251
I21
tp252
a((VColeman Burke
p253
VSusan Burke
p254
tp255
I21
tp256
a((VGayle Sobel
p257
VHoward Sobel
p258
tp259
I21
tp260
a((VIngrid Connolly
p261
VJohn Connolly
p262
tp263
I21
tp264
a((VBrian Stewart
p265
VStephanie Krieger
p266
tp267
I21
tp268
a((VAnna Safir
p269
VEleanora Kennedy
p270
tp271
I21
tp272
a((VJean Shafiroff
p273
VSharon Bush
p274
tp275
I21
tp276
a((VKathy Hilton
p277
VRick Hilton
p278
tp279
I21
tp280
a((VRay Kelly
p281
VVeronica Kelly
p282
tp283
I21
tp284
a((VRenee Steinberg
p285
VRichard Steinberg
p286
tp287
I21
tp288
a((VCeCe Black
p289
VLee Black
p290
tp291
I20
tp292
a((VNaeem Khan
p293
VRanjana Khan
p294
tp295
I20
tp296
a((VPotter Aston
p297
VSomers Farkas
p298
tp299
I20
tp300
a((VRichard Johnson
p301
VSessa Johnson
p302
tp303
I20
tp304
a((g190
g114
tp305
I20
tp306
a((VAlex Lundqvist
p307
VKeytt Lundqvist
p308
tp309
I20
tp310
a((VGillian Miniter
p311
VSerena Miniter
p312
tp313
I19
tp314
a((VIsabel Toledo
p315
VRuben Toledo
p316
tp317
I19
tp318
a((VMarcia Mishaan
p319
VRichard Mishaan
p320
tp321
I19
tp322
a((VGeoffrey Thomas
p323
VSharon Sondes
p324
tp325
I19
tp326
a((VRobert Bradford
p327
VTaylor Bradford
p328
tp329
I18
tp330
a((VNicholas Scoppetta
p331
VSusan Magazine
p332
tp333
I18
tp334
a((VKim Taipale
p335
VNicole Miller
p336
tp337
I18
tp338
a((VMilstein Hall
p339
VOcean Life
p340
tp341
I18
tp342
a((VJohn Castle
p343
VJohn Connolly
p344
tp345
I18
tp346
a((VCommittee Co-chair
p347
VCommittee Co-chair
p348
tp349
I18
tp350
a((VBarbara
p351
VPortago
p352
tp353
I18
tp354
a((VAndrew
p355
VAndrew
p356
tp357
I18
tp358
a((VBobby Zarin
p359
VJill Zarin
p360
tp361
I18
tp362
a((VCece Black
p363
VLee Black
p364
tp365
I17
tp366
a((VAnn Rapp
p367
VRoy Kean
p368
tp369
I17
tp370
a((VDavid Yanks
p371
VSamantha Yanks
p372
tp373
I17
tp374
a((VRichthofen Johnson
p375
g302
tp376
I17
tp377
a((VHeather Leeds
p378
VTom Leeds
p379
tp380
I17
tp381
a((VTatiana Perkin
p382
VThorne Perkin
p383
tp384
I17
tp385
a((VAlec Baldwin
p386
VHilaria Baldwin
p387
tp388
I17
tp389
a((VAlexandra Lebenthal
p390
VClaudia Lebenthal
p391
tp392
I17
tp393
a((VJudy Gilbert
p394
VRod Gilbert
p395
tp396
I17
tp397
a((VHarry Kargman
p398
VJill Kargman
p399
tp400
I17
tp401
a.