(lp1
S'/party-pictures/2014/gala-guests'
p2
aS'/party-pictures/2014/equal-justice'
p3
aS'/party-pictures/2014/celebrating-the-treasures'
p4
aS'/party-pictures/2014/associates-and-friends'
p5
aS'/party-pictures/2014/michaels-25th'
p6
aS'/party-pictures/2014/new-york-lifelines'
p7
aS'/party-pictures/2014/legends-and-leaders'
p8
aS'/party-pictures/2014/fall-fun'
p9
aS'/party-pictures/2014/park-avenue-armorys-2014-gala-masquerade'
p10
aS'/party-pictures/2014/old-friends-new-friends'
p11
aS'/party-pictures/2014/new-york-new-york-a-helluva-town'
p12
aS'/party-pictures/2014/patrons-sponsors-supporters-friends-alumni-and-members'
p13
aS'/party-pictures/2014/the-fricks-annual-autumn-dinner-and-casita-marias-2014-fiesta'
p14
aS'/party-pictures/2014/new-york-and-beyond'
p15
aS'/party-pictures/2014/compassion-choices'
p16
aS'/party-pictures/2014/public-celebrations'
p17
aS'/party-pictures/2014/junior-councils-taking-the-lead'
p18
aS'/party-pictures/2014/luncheons-lectures-and-masked-balls'
p19
aS'/party-pictures/2014/opening-numbers'
p20
aS'/party-pictures/2014/the-height-of-style'
p21
aS'/party-pictures/2014/from-the-high-line-to-the-sea'
p22
aS'/party-pictures/2014/the-anticipation'
p23
aS'/party-pictures/2014/circle-of-friends'
p24
aS'/party-pictures/2014/classic-moments'
p25
aS'/party-pictures/2014/at-home-in-the-hamptons'
p26
aS'/party-pictures/2014/summer-evening-events'
p27
aS'/party-pictures/2014/midsummer-party-benefits'
p28
aS'/party-pictures/2014/more-hamptons-happenings'
p29
aS'/party-pictures/2014/hamptons-happenings'
p30
aS'/party-pictures/2014/endless-summers'
p31
aS'/party-pictures/2014/sleepless-nights-and-horsey-days'
p32
aS'/party-pictures/2014/super-saturdays'
p33
aS'/nysd/partypictures'
p34
aS'/party-pictures/2014/white-hot-summer'
p35
aS'/party-pictures/2014/cocktails-at-sunset'
p36
aS'/party-pictures/2014/young-professionals-and-lifetime-achievements'
p37
aS'/party-pictures/2014/achievement'
p38
aS'/party-pictures/2014/midsummer-parties'
p39
aS'/party-pictures/2014/swan-balls-garden-parties-and-summer-premieres'
p40
aS'/party-pictures/2014/summer-fun'
p41
aS'/party-pictures/2014/celebrate-summer'
p42
aS'/party-pictures/2014/galas-inside-and-out'
p43
aS'/party-pictures/2014/summery-scenes'
p44
aS'/party-pictures/2014/calling-the-calvary'
p45
aS'/party-pictures/2014/its-showtime'
p46
aS'/party-pictures/2014/joining-forces'
p47
aS'/party-pictures/2014/partnerships'
p48
aS'/party-pictures/2014/dressed-for-the-occasion'
p49
aS'/party-pictures/2014/restoration'
p50
aS'/party-pictures/2014/garden-partying'
p51
aS'/party-pictures/2014/spirit-and-stewardship'
p52
aS'/party-pictures/2014/notables-0'
p53
aS'/party-pictures/2014/supporters-and-friends'
p54
aS'/party-pictures/2014/lectures-luncheons-ladies-and-legends'
p55
aS'/party-pictures/2014/star-studded'
p56
aS'/party-pictures/2014/under-the-tent-and-on-the-stage'
p57
aS'/party-pictures/2014/on-the-promenade'
p58
aS'/party-pictures/2014/birthdays-and-the-art-of-packaging'
p59
aS'/party-pictures/2014/does-anyone-still-wear-a-hat'
p60
aS'/party-pictures/2014/stir-splatter-roll-and-smile'
p61
aS'/party-pictures/2014/spring-soirees'
p62
aS'/party-pictures/2014/celebrate-spring'
p63
aS'/party-pictures/2014/practical-magic'
p64
aS'/party-pictures/2014/new-years-in-april'
p65
aS'/party-pictures/2014/spring-affairs'
p66
aS'/party-pictures/2014/the-gift-of-music'
p67
aS'/party-pictures/2014/spring-revelers'
p68
aS'/party-pictures/2014/leveling-the-playing-field'
p69
aS'/party-pictures/2014/civic-inspiration'
p70
aS'/party-pictures/2014/works-process'
p71
aS'/party-pictures/2014/galas-screenings-auctions-and-theatre'
p72
aS'/party-pictures/2014/heart-and-soul'
p73
aS'/party-pictures/2014/notables'
p74
aS'/party-pictures/2014/beating-the-odds'
p75
aS'/party-pictures/2014/celestial-balls'
p76
aS'/party-pictures/2014/late-winter-menu'
p77
aS'/party-pictures/2014/faces-and-places'
p78
aS'/party-pictures/2014/hopping-along'
p79
aS'/party-pictures/2014/new-york-city-delights'
p80
aS'/party-pictures/2014/keeping-warm-down-in-palm-beach'
p81
aS'/party-pictures/2014/2014-vanity-fair-oscar-party'
p82
aS'/party-pictures/2014/enchanted-evenings'
p83
aS'/party-pictures/2014/winter-social-schedule'
p84
aS'/party-pictures/2014/the-winter-ball'
p85
aS'/party-pictures/2014/dining-with-the-divas'
p86
aS'/party-pictures/2014/staying-warm'
p87
aS'/party-pictures/2014/winter-luncheons-and-gala-dinners'
p88
aS'/party-pictures/2014/celebratory-evenings'
p89
aS'/party-pictures/2014/fundraising-luncheons-dinners-and-symposiums'
p90
aS'/party-pictures/2014/artists-for-conservation'
p91
aS'/party-pictures/2014/winter-lunching'
p92
aS'/party-pictures/2014/leadership-roles'
p93
aS'/party-pictures/2014/exhibitions-and-benefits'
p94
aS'/party-pictures/2014/great-expectations'
p95
aS'/party-pictures/2014/from-the-golden-age-to-the-modern-breakthrough'
p96
aS'/party-pictures/2014/heating-up'
p97
aS'/party-pictures/2014/in-the-land-of-coconuts-and-limes'
p98
aS'/party-pictures/2013/heart-healthy'
p99
aS'/party-pictures/2013/holiday-galas'
p100
aS'/party-pictures/2013/a-ripple-of-hope'
p101
aS'/party-pictures/2013/winter-wonderland'
p102
aS'/party-pictures/2013/tis-the-season'
p103
aS'/party-pictures/2013/holiday-gatherings'
p104
aS'/party-pictures/2013/wrapping-up-the-fall-gala-circuit'
p105
aS'/party-pictures/2013/lighting-up-the-holidays'
p106
aS'/party-pictures/2013/mad-about-art'
p107
aS'/party-pictures/2013/notable-galas-and-guests'
p108
aS'/party-pictures/2013/an-eye-for-detail'
p109
aS'/party-pictures/2013/presentations-and-prizes'
p110
aS'/party-pictures/2013/full-fall-calendar'
p111
aS'/party-pictures/2013/a-new-york-love-affair'
p112
aS'/party-pictures/2013/new-york-members'
p113
aS'/party-pictures/2013/more-fall-fetes'
p114
aS'/party-pictures/2013/hope-and-healing'
p115
aS'/party-pictures/2013/setting-the-gold-standard'
p116
aS'/party-pictures/2013/lions-tigers-bears-oh-my'
p117
aS'/party-pictures/2013/the-giving-pledge'
p118
aS'/party-pictures/2013/hulaween-halloween'
p119
aS'/party-pictures/2013/awards-of-excellence'
p120
aS'/party-pictures/2013/patrons-sponsors-supporters-and-friends'
p121
aS'/party-pictures/2013/dancing-and-donating'
p122
aS'/party-pictures/2013/art-and-culture'
p123
aS'/party-pictures/2013/benefits-for-betterment'
p124
aS'/party-pictures/2013/awards-and-remembrances'
p125
aS'/party-pictures/2013/outstanding-volunteerism'
p126
aS'/party-pictures/2013/fall-gala-celebrations'
p127
aS'/party-pictures/2013/luncheons-symposiums-and-soirees'
p128
aS'/party-pictures/2013/social-promise'
p129
aS'/party-pictures/2013/new-york-after-dark'
p130
aS'/party-pictures/2013/fruitful-fall-galas'
p131
aS'/party-pictures/2013/fact-vs-fiction'
p132
aS'/party-pictures/2013/autumn-kick-offs'
p133
aS'/party-pictures/2013/destination-for-dialogue'
p134
aS'/party-pictures/2013/fall-gala-gaga'
p135
aS'/party-pictures/2013/garden-parties-and-opening-nights'
p136
aS'/party-pictures/2013/everything-is-beautiful'
p137
aS'/party-pictures/2013/new-yorkers-out-in-full-force'
p138
aS'/party-pictures/2013/picture-perfect'
p139
aS'/party-pictures/2013/artistry-of-fashion'
p140
aS'/party-pictures/2013/fashion-and-funds'
p141
aS'/party-pictures/2013/coming-to-a-close'
p142
aS'/party-pictures/2013/sock-hops-horse-shows-and-birthdays'
p143
aS'/party-pictures/2013/swanning-with-adrian-0'
p144
aS'/party-pictures/2013/held-in-high-regard'
p145
aS'/party-pictures/2013/meanwhile-summer-reading-aside'
p146
aS'/party-pictures/2013/not-just-any-game'
p147
aS'/party-pictures/2013/women-of-valor'
p148
aS'/party-pictures/2013/swanning-with-adrian'
p149
aS'/party-pictures/2013/hampton-arrivals'
p150
aS'/party-pictures/2013/in-the-heart-of-the-hudson-valley'
p151
aS'/party-pictures/2013/summer-gatherings'
p152
aS'/party-pictures/2013/55th-annual-southampton-hospital-gala'
p153
aS'/party-pictures/2013/much-anticipated'
p154
aS'/party-pictures/2013/bobs-big-bash-at-watermill-center'
p155
aS'/party-pictures/2013/invitation-only-previews-0'
p156
aS'/party-pictures/2013/invitation-only-previews'
p157
aS'/party-pictures/2013/summer-cocktailing'
p158
aS'/party-pictures/2013/midsummer-partying'
p159
aS'/party-pictures/2013/openings-and-kickoffs'
p160
aS'/party-pictures/2013/polo-and-preservation'
p161
aS'/party-pictures/2013/ellys-and-extravaganzas'
p162
aS'/party-pictures/2013/on-off-the-ground'
p163
aS'/party-pictures/2013/amongst-the-throng'
p164
aS'/party-pictures/2013/official-commencements'
p165
aS'/party-pictures/2013/midsummer-night-drinks'
p166
aS'/party-pictures/2013/tributes-to-friends-and-colleagues'
p167
aS'/party-pictures/2013/bideawee-ball-2013'
p168
aS'/party-pictures/2013/centennial-anniversaries-and-environmental-literacy'
p169
aS'/party-pictures/2013/commitment-to-the-mission'
p170
aS'/party-pictures/2013/enchanted-evenings'
p171
aS'/party-pictures/2013/an-overflow'
p172
aS'/party-pictures/2013/wild-in-the-city'
p173
aS'/party-pictures/2013/the-new-york-botanical-garden-and-the-gordon-parks-foundation'
p174
aS'/party-pictures/2013/more-more-more'
p175
aS'/party-pictures/2013/restoration-and-revival'
p176
aS'/party-pictures/2013/faithful-support'
p177
aS'/party-pictures/2013/kick-starting-the-summer-season'
p178
aS'/party-pictures/2013/family-parties-and-excellence-in-the-classical-tradition'
p179
aS'/party-pictures/2013/legacy-of-excellence'
p180
aS'/party-pictures/2013/spring-gala-galore'
p181
aS'/party-pictures/2013/legacies'
p182
aS'/party-pictures/2013/women-who-care'
p183
aS'/party-pictures/2013/living-legends'
p184
aS'/party-pictures/2013/savoring-the-city'
p185
aS'/party-pictures/2013/masterpiece-celebrations'
p186
aS'/party-pictures/2013/posh-affairs'
p187
aS'/party-pictures/2013/spring-showings'
p188
aS'/party-pictures/2013/royal-benefit-dinners'
p189
aS'/party-pictures/2013/the-31st-annual-frederick-law-olmsted-awards-luncheon'
p190
aS'/party-pictures/2013/symposiums-luncheons-and-dinner-dances'
p191
aS'/party-pictures/2013/central-to-spring'
p192
aS'/party-pictures/2013/a-changing-world'
p193
aS'/party-pictures/2013/viva-fiesta'
p194
aS'/party-pictures/2013/over-the-top-and-under-the-sea'
p195
aS'/party-pictures/2013/art-awards-and-practical-magic'
p196
aS'/party-pictures/2013/we-are-their-voice'
p197
aS'/party-pictures/2013/spring-dinner-dances'
p198
aS'/party-pictures/2013/spring-galas-and-authors-in-kind'
p199
aS'/party-pictures/2013/the-elegant-and-the-exclusive'
p200
aS'/party-pictures/2013/young-fellows-and-masquerades'
p201
aS'/party-pictures/2013/spring-kickoffs'
p202
aS'/party-pictures/2013/birthdays-anniversaries-auctions-and-galas'
p203
aS'/party-pictures/2013/between-the-sheets'
p204
aS'/party-pictures/2013/celebrating-the-home-front'
p205
aS'/party-pictures/2013/celebrating-continued-success'
p206
aS'/party-pictures/2013/the-party-scene'
p207
aS'/party-pictures/2013/a-winter-ball-and-a-25th-anniversary'
p208
aS'/party-pictures/2013/intimate-presentations-and-charity-luncheons-and-dinners'
p209
aS'/party-pictures/2013/pisces-and-partners'
p210
aS'/party-pictures/2013/party-hopping'
p211
aS'/party-pictures/2013/exotic-inspirations'
p212
aS'/party-pictures/2013/gaming-for-a-cause'
p213
aS'/party-pictures/2013/blizzards-bubbles-and-baubles'
p214
aS'/party-pictures/2013/spring-prospectives-and-retrospectives'
p215
aS'/party-pictures/2013/after-the-oscars-are-over'
p216
aS'/party-pictures/2013/generosity-events'
p217
aS'/party-pictures/2013/mayors-and-museums'
p218
aS'/party-pictures/2013/musical-and-artistic-celebrations'
p219
aS'/party-pictures/2013/creating-the-dance'
p220
aS'/party-pictures/2013/dignitaries-diplomats-and-debutantes'
p221
aS'/party-pictures/2013/many-feted'
p222
aS'/party-pictures/2013/young-collectors-and-plates-for-pediatrics'
p223
aS'/party-pictures/2013/landmark-anniversaries'
p224
aS'/party-pictures/2013/passport-through-american-history'
p225
aS'/party-pictures/2013/opening-nights'
p226
aS'/party-pictures/2013/new-york-and-beyond'
p227
aS'/party-pictures/2013/women-of-distinction'
p228
aS'/party-pictures/2012/the-last-of-the-parties-for-2012'
p229
aS'/party-pictures/2012/stepping-up'
p230
aS'/party-pictures/2012/holiday-benefits'
p231
aS'/party-pictures/2012/holiday-dinners'
p232
aS'/party-pictures/2012/holiday-galas'
p233
aS'/party-pictures/2012/gold-medal-awards'
p234
aS'/party-pictures/2012/celebrate-the-neighborhood'
p235
aS'/party-pictures/2012/new-york-illuminated'
p236
aS'/party-pictures/2012/gala-extravaganzas'
p237
aS'/party-pictures/2012/25-and-counting'
p238
aS'/party-pictures/2012/women-and-of-distinction'
p239
aS'/party-pictures/2012/annual-honors'
p240
aS'/party-pictures/2012/new-yorks-100-and-more'
p241
aS'/party-pictures/2012/fall-fetes'
p242
aS'/party-pictures/2012/encore'
p243
aS'/party-pictures/2012/winners-and-honorees'
p244
aS'/party-pictures/2012/official-openings'
p245
aS'/party-pictures/2012/open-house'
p246
aS'/party-pictures/2012/jumping-for-joy'
p247
aS'/party-pictures/2012/autumn-balls'
p248
aS'/party-pictures/2012/for-the-family'
p249
aS'/party-pictures/2012/lighting-up-lives-0'
p250
aS'/party-pictures/2012/heroes-and-angels'
p251
aS'/party-pictures/2012/opening-nights-and-anniversary-events'
p252
aS'/party-pictures/2012/fall-tributes'
p253
aS'/party-pictures/2012/full-fall'
p254
aS'/party-pictures/2012/delicious-autumn'
p255
aS'/party-pictures/2012/awesome-autumn-dinners'
p256
aS'/party-pictures/2012/anniversary-celebrations-and-celebrity-conversations'
p257
aS'/party-pictures/2012/locally-nationally-and-internationally'
p258
aS'/party-pictures/2012/new-york-after-dark'
p259
aS'/party-pictures/2012/on-with-the-show'
p260
aS'/party-pictures/2012/20th-hamptons-international-film-festival'
p261
aS'/party-pictures/2012/season-openers'
p262
aS'/party-pictures/2012/a-summer-wedding-beth-butler-and-christopher-james'
p263
aS'/party-pictures/2012/fall-benefits'
p264
aS'/party-pictures/2012/discovery-and-fiesta'
p265
aS'/party-pictures/2012/lighting-up-lives'
p266
aS'/party-pictures/2012/gala-openings-and-annual-luncheons'
p267
aS'/party-pictures/2012/heroes-among-us'
p268
aS'/party-pictures/2012/new-yorkers-for-children'
p269
aS'/party-pictures/2012/shows-and-showings'
p270
aS'/party-pictures/2012/summertime-in-venice-with-save-venice-1'
p271
aS'/party-pictures/2012/summertime-in-venice-with-save-venice-0'
p272
aS'/party-pictures/2012/summertime-in-venice-with-save-venice'
p273
aS'/party-pictures/2012/homeland-and-abroad'
p274
aS'/party-pictures/2012/fashion-art-and-style'
p275
aS'/party-pictures/2012/final-summer-days'
p276
aS'/party-pictures/2012/sip-schmooze-and-shop'
p277
aS'/party-pictures/2012/luncheons-cocktails-and-opening-days'
p278
aS'/party-pictures/2012/dinner-and-conversation'
p279
aS'/party-pictures/2012/jewels-of-summer'
p280
aS'/party-pictures/2012/music-medicine-and-millbrook'
p281
aS'/party-pictures/2012/get-wild'
p282
aS'/party-pictures/2012/hamptons-happenings'
p283
aS'/party-pictures/2012/festive-hamptons-evenings'
p284
aS'/party-pictures/2012/summer-heat'
p285
aS'/party-pictures/2012/art-for-life'
p286
aS'/party-pictures/2012/overwhelmed-with-events'
p287
aS'/party-pictures/2012/the-horsey-set'
p288
aS'/party-pictures/2012/summer-garden-parties'
p289
aS'/party-pictures/2012/the-parrish'
p290
aS'/party-pictures/2012/summer-soirees-and-hamptons-happenings'
p291
aS'/party-pictures/2012/american-picnics-love-heals-art-rules'
p292
aS'/party-pictures/2012/summer-lovin'
p293
aS'/party-pictures/2012/summer-symposiums-and-soirees'
p294
aS'/party-pictures/2012/polo-and-performing-arts'
p295
aS'/party-pictures/2012/body-of-work'
p296
aS'/party-pictures/2012/the-season-upcoming'
p297
aS'/party-pictures/2012/standards-of-excellence'
p298
aS'/party-pictures/2012/midsummer-night-drinks'
p299
aS'/party-pictures/2012/wildlife-wonderment'
p300
aS'/party-pictures/2012/simple-pleasures'
p301
aS'/party-pictures/2012/hot-summer-nights'
p302
aS'/party-pictures/2012/born-green'
p303
aS'/party-pictures/2012/new-york-botanical-gardens-conservatory-ball'
p304
aS'/party-pictures/2012/if-a-june-night-could-talk'
p305
aS'/party-pictures/2012/the-new-york-restoration-project-spring-picnic'
p306
aS'/party-pictures/2012/multigenerational'
p307
aS'/party-pictures/2012/citizens-for-new-york-city'
p308
aS'/party-pictures/2012/inspiration'
p309
aS'/party-pictures/2012/from-el-barrio-to-the-east-end'
p310
aS'/party-pictures/2012/awards-season'
p311
aS'/party-pictures/2012/spring-jump-jivin'
p312
aS'/party-pictures/2012/notable-occasions'
p313
aS'/party-pictures/2012/women-who-care'
p314
aS'/party-pictures/2012/let-us-read-and-let-us-dance'
p315
aS'/party-pictures/2012/more-spring-benefits-and-anniversaries'
p316
aS'/party-pictures/2012/everything-is-beautiful'
p317
aS'/party-pictures/2012/celebration'
p318
aS'/party-pictures/2012/spring-symposiums-luncheons-and-gala-dinners'
p319
aS'/party-pictures/2012/spring-social-season'
p320
aS'/party-pictures/2012/millinery-miracles-at-the-30th-annual-flo-awards-luncheon'
p321
aS'/party-pictures/2012/the-sound-of-music'
p322
aS'/party-pictures/2012/ladies-luncheons-the-art-of-packaging-and-alumnae-aid'
p323
aS'/party-pictures/2012/medal-of-excellence'
p324
aS'/party-pictures/2012/primavera-parties'
p325
aS'/party-pictures/2012/spring-soirees'
p326
aS'/party-pictures/2012/brooklyn-artists-ball-couture-en-fleur-and-much-more'
p327
aS'/party-pictures/2012/all-the-worlds-a-stage'
p328
aS'/party-pictures/2012/next-steps'
p329
aS'/party-pictures/2012/gala-previews-and-openings-nights'
p330
aS'/party-pictures/2012/from-birthdays-to-books-parties'
p331
aS'/party-pictures/2012/hopping-along-0'
p332
aS'/party-pictures/2012/un-ballo-in-maschera'
p333
aS'/party-pictures/2012/spring-gala-benefits'
p334
aS'/party-pictures/2012/anniversaries-and-inaugurations'
p335
aS'/party-pictures/2012/end-of-winter'
p336
aS'/party-pictures/2012/enhancing-your-mood'
p337
aS'/party-pictures/2012/art-openings-masked-balls-dinners-parties-and-more'
p338
aS'/party-pictures/2012/awards-in-leadership'
p339
aS'/party-pictures/2012/museum-of-the-city-of-new-yorks-winter-ball'
p340
aS'/party-pictures/2012/hopping-along'
p341
aS'/party-pictures/2012/moonlight-in-marrakesh-and-more'
p342
aS'/party-pictures/2012/vision'
p343
aS'/party-pictures/2012/first-position'
p344
aS'/party-pictures/2012/living-heritage'
p345
aS'/party-pictures/2012/winter-balls-a-comin'
p346
aS'/party-pictures/2012/galas-luncheons-screenings-and-discussions'
p347
aS'/party-pictures/2012/skates-all-laced'
p348
aS'/party-pictures/2012/glamour-elegance-and-tradition'
p349
aS'/party-pictures/2012/more-drama'
p350
aS'/party-pictures/2012/new-york-to-palm-beach-to-san-francisco'
p351
aS'/party-pictures/2012/seeing-red'
p352
aS'/party-pictures/2012/ultimate-new-york'
p353
aS'/party-pictures/2012/for-the-kids'
p354
aS'/party-pictures/2012/sons-and-daughters'
p355
aS'/party-pictures/2012/year-of-the-dragon'
p356
aS'/party-pictures/2012/destiny-rising'
p357
aS'/party-pictures/2012/opening-nights'
p358
aS'/party-pictures/2012/called-into-duty'
p359
aS'/party-pictures/2012/movie-week-in-new-york'
p360
aS'/party-pictures/2012/meet-and-greets'
p361
aS'/party-pictures/2011/playing-catch-up'
p362
aS'/party-pictures/2011/new-york-new-york'
p363
aS'/party-pictures/2011/young-leadership'
p364
aS'/party-pictures/2011/christmas-luncheons-and-performances'
p365
aS'/party-pictures/2011/acria-and-child-mind'
p366
aS'/party-pictures/2011/adventures-in-new-york'
p367
aS'/party-pictures/2011/first-responders'
p368
aS'/party-pictures/2011/to-education-and-culture'
p369
aS'/party-pictures/2011/winter-wonderland-0'
p370
aS'/party-pictures/2011/holiday-launches'
p371
aS'/party-pictures/2011/in-the-holiday-spirit'
p372
aS'/party-pictures/2011/philanthropists-art-lovers-and-patrons'
p373
aS'/party-pictures/2011/going-strong'
p374
aS'/party-pictures/2011/old-and-new'
p375
aS'/party-pictures/2011/a-little-bit-of-everything'
p376
aS'/party-pictures/2011/the-fall-season-in-full-swing'
p377
aS'/party-pictures/2011/fall-full-up'
p378
aS'/party-pictures/2011/home-for-the-holidays'
p379
aS'/party-pictures/2011/hope-for-all'
p380
aS'/party-pictures/2011/autumn-in-the-park'
p381
aS'/party-pictures/2011/largest-benefits-yet'
p382
aS'/party-pictures/2011/celebrations'
p383
aS'/party-pictures/2011/fall-feting'
p384
aS'/party-pictures/2011/bringing-the-crowd-to-their-feet'
p385
aS'/party-pictures/2011/hulaween-horticulture-and-hostessing'
p386
aS'/party-pictures/2011/fall-dances-and-dos'
p387
aS'/party-pictures/2011/taking-action'
p388
aS'/party-pictures/2011/the-extraordinary-and-exemplary'
p389
aS'/party-pictures/2011/autumn-dinners'
p390
aS'/party-pictures/2011/save-a-life'
p391
aS'/party-pictures/2011/uniforms-and-tuxedos'
p392
aS'/party-pictures/2011/new-york-after-dark'
p393
aS'/party-pictures/2011/variations-on-a-theme'
p394
aS'/party-pictures/2011/galas-appeals-and-childrens-rights'
p395
aS'/party-pictures/2011/good-times-good-causes'
p396
aS'/party-pictures/2011/old-fashioned-cocktail-parties-and-galas-dinners'
p397
aS'/party-pictures/2011/dinner-and-dancing'
p398
aS'/party-pictures/2011/hope-on-the-horizon'
p399
aS'/party-pictures/2011/patrons-young-and-old'
p400
aS'/party-pictures/2011/ballet-balls-and-books'
p401
aS'/party-pictures/2011/high-marks'
p402
aS'/party-pictures/2011/fall-galas-come-forth'
p403
aS'/party-pictures/2011/new-york-needs-you'
p404
aS'/party-pictures/2011/thanks-for-giving'
p405
aS'/party-pictures/2011/valentino-the-great'
p406
aS'/party-pictures/2011/riding-high'
p407
aS'/party-pictures/2011/hamptons-rocks'
p408
aS'/party-pictures/2011/festive-in-flip-flops'
p409
aS'/party-pictures/2011/high-honors'
p410
aS'/party-pictures/2011/couture-and-carnivals'
p411
aS'/party-pictures/2011/la-dinner-parties-and-hamptons-hoedowns'
p412
aS'/party-pictures/2011/medal-days'
p413
aS'/party-pictures/2011/fundraisers-and-birthdays-out-east'
p414
aS'/party-pictures/2011/women-of-valor'
p415
aS'/party-pictures/2011/new-york-newport-and-aspen'
p416
aS'/party-pictures/2011/everybody-wins'
p417
aS'/party-pictures/2011/a-tropical-paradise'
p418
aS'/party-pictures/2011/dance-with-the-stars'
p419
aS'/party-pictures/2011/loyal-supporters'
p420
aS'/party-pictures/2011/miracles-and-mulligans'
p421
aS'/party-pictures/2011/life-for-art-art-for-life'
p422
aS'/party-pictures/2011/super-saturdays'
p423
aS'/party-pictures/2011/children-of-the-city'
p424
aS'/party-pictures/2011/summer-afternoons'
p425
aS'/party-pictures/2011/gala-previews'
p426
aS'/party-pictures/2011/summer-tributes'
p427
aS'/party-pictures/2011/all-is-fair'
p428
aS'/party-pictures/2011/hamptons-forays'
p429
aS'/party-pictures/2011/summer-songs'
p430
aS'/party-pictures/2011/annual-summer-parties'
p431
aS'/party-pictures/2011/white-nights'
p432
aS'/party-pictures/2011/midsummer-party-galas'
p433
aS'/party-pictures/2011/small-town-americana'
p434
aS'/party-pictures/2011/all-american-treats'
p435
aS'/party-pictures/2011/season-spectacular'
p436
aS'/party-pictures/2011/summer-soirees'
p437
aS'/party-pictures/2011/back-to-old-habits'
p438
aS'/party-pictures/2011/summer-party-benefits'
p439
aS'/party-pictures/2011/annual-appeals'
p440
aS'/party-pictures/2011/summer-in-the-city'
p441
aS'/party-pictures/2011/midsummer-nights'
p442
aS'/party-pictures/2011/dreamers-and-doers'
p443
aS'/party-pictures/2011/salute-to-achievement'
p444
aS'/party-pictures/2011/spring-galas-and-soirees'
p445
aS'/party-pictures/2011/leadership-awards-abound'
p446
aS'/party-pictures/2011/the-ballet-calvary-and-high-line'
p447
aS'/party-pictures/2011/re-openings-and-anniversaries'
p448
aS'/party-pictures/2011/taste-of-summer'
p449
aS'/party-pictures/2011/women-in-conservation'
p450
aS'/party-pictures/2011/sunny-days'
p451
aS'/party-pictures/2011/restoration-new-york'
p452
aS'/party-pictures/2011/diamond-anniversaries-and-crystal-parties'
p453
aS'/party-pictures/2011/promising-projects'
p454
aS'/party-pictures/2011/sunrise-sunset'
p455
aS'/party-pictures/2011/amazing-new-york'
p456
aS'/party-pictures/2011/more-spring-celebrations'
p457
aS'/party-pictures/2011/medals-of-honor'
p458
aS'/party-pictures/2011/spring-galas-galore'
p459
aS'/party-pictures/2011/spring-bloomers'
p460
aS'/party-pictures/2011/excellence-in-the-classical-tradition'
p461
aS'/party-pictures/2011/debutantes-gifts-of-music-and-the-bomb'
p462
aS'/party-pictures/2011/the-spirit-of-achievement'
p463
aS'/party-pictures/2011/the-arts-and-its-supporters'
p464
aS'/party-pictures/2011/mr-lauren-and-mr-broadway-lead-the-way'
p465
aS'/party-pictures/2011/no-sleep-till-brooklyn'
p466
aS'/party-pictures/2011/royal-nights'
p467
aS'/party-pictures/2011/spring-showings'
p468
aS'/party-pictures/2011/stir-splatter-roll'
p469
aS'/party-pictures/2011/peter-cottontail-and-defying-gravity'
p470
aS'/party-pictures/2011/a-breath-of-spring'
p471
aS'/party-pictures/2011/through-the-kitchen'
p472
aS'/party-pictures/2011/tickled-pink'
p473
aS'/party-pictures/2011/access-to-the-arts'
p474
aS'/party-pictures/2011/practical-magic'
p475
aS'/party-pictures/2011/sunny-days-0'
p476
aS'/party-pictures/2011/a-fools-fete'
p477
aS'/party-pictures/2011/flawless'
p478
aS'/party-pictures/2011/celebrating-spring'
p479
aS'/party-pictures/2011/encores'
p480
aS'/party-pictures/2011/eye-of-the-tiger'
p481
aS'/party-pictures/2011/divas-all-around'
p482
aS'/party-pictures/2011/bid-to-save-humanity'
p483
aS'/party-pictures/2011/excellence-awards'
p484
aS'/party-pictures/2011/monodramas-and-museums'
p485
aS'/party-pictures/2011/reflections-and-receptions'
p486
aS'/party-pictures/2011/new-york-in-bloom'
p487
aS'/party-pictures/2011/pisces-parties'
p488
aS'/party-pictures/2011/new-york-still-going-strong'
p489
aS'/party-pictures/2011/hopping-along'
p490
aS'/party-pictures/2011/young-fellows'
p491
aS'/party-pictures/2011/awards-for-leadership-and-excellence'
p492
aS'/party-pictures/2011/winter-wonderland'
p493
aS'/party-pictures/2011/best-showings'
p494
aS'/party-pictures/2011/investing-in-ourselves'
p495
aS'/party-pictures/2011/vanity-fairs-oscar-party'
p496
aS'/party-pictures/2011/new-yorkers-in-el-lay'
p497
aS'/party-pictures/2011/winter-ball'
p498
aS'/party-pictures/2011/new-seasons-to-celebrate'
p499
aS'/party-pictures/2011/supreme-sacrifice'
p500
aS'/party-pictures/2011/personal-interests'
p501
aS'/party-pictures/2011/annual-luncheons-dinners-and-drinks'
p502
aS'/party-pictures/2011/gala-kick-offs-business-authorities-and-role-models'
p503
aS'/party-pictures/2011/fundraising-galas-galore'
p504
aS'/party-pictures/2011/happenings'
p505
aS'/party-pictures/2011/opening-acts'
p506
aS'/party-pictures/2011/centerpiece-of-new-yorks-premier-winter-social-events'
p507
aS'/party-pictures/2011/kids-and-conservation'
p508
aS'/party-pictures/2011/glamour-glitter-generosity'
p509
aS'/party-pictures/2011/year-of-the-rabbit'
p510
aS'/party-pictures/2011/opening-night-preview-of-the-winter-antiques-show'
p511
aS'/party-pictures/2011/mecca-of-culture'
p512
aS'/party-pictures/2011/curtain-calls'
p513
aS'/party-pictures/2011/january-white-sale'
p514
aS'/party-pictures/2011/history-buffs'
p515
aS'/party-pictures/2011/visual-feasts'
p516
aS'/party-pictures/2011/from-new-york-to-the-bayou'
p517
aS'/party-pictures/2011/winter-solstice'
p518
aS'/party-pictures/2011/the-56th-international-debutante-ball'
p519
aS'/party-pictures/2010/five-days-of-christmas-luncheons'
p520
aS'/party-pictures/2010/twas-the-night-before-christmas'
p521
aS'/party-pictures/2010/holiday-party-time'
p522
aS'/party-pictures/2010/new-york-unleashed'
p523
aS'/party-pictures/2010/feast-for-the-senses'
p524
aS'/party-pictures/2010/winter-wonderland'
p525
aS'/party-pictures/2010/top-dogs'
p526
aS'/party-pictures/2010/uptown-and-downtown'
p527
aS'/party-pictures/2010/transformations'
p528
aS'/party-pictures/2010/every-day-is-a-holiday'
p529
aS'/party-pictures/2010/celebration-of-life'
p530
aS'/party-pictures/2010/catching-up'
p531
aS'/party-pictures/2010/people-of-distinction'
p532
aS'/party-pictures/2010/the-fall-party-scene'
p533
aS'/party-pictures/2010/strengthening-bonds'
p534
aS'/party-pictures/2010/kingly-pursuits-and-magical-evenings'
p535
aS'/party-pictures/2010/anyone-who-was-anyone'
p536
aS'/party-pictures/2010/pulling-out-all-the-stops'
p537
aS'/party-pictures/2010/continuing-tradition'
p538
aS'/party-pictures/2010/annual-appeals'
p539
aS'/party-pictures/2010/friends-embrace'
p540
aS'/party-pictures/2010/helping-hands-and-strands'
p541
aS'/party-pictures/2010/broadway-actresses-and-hollywood-stars-to-the-ladies-who-lunch'
p542
aS'/party-pictures/2010/the-fall-party'
p543
aS'/party-pictures/2010/a-little-bit-of-everything'
p544
aS'/party-pictures/2010/we-are-family'
p545
aS'/party-pictures/2010/new-york-salutes-0'
p546
aS'/party-pictures/2010/a-lifetime-of-achievement'
p547
aS'/party-pictures/2010/angels-and-legends'
p548
aS'/party-pictures/2010/autumn-dinners'
p549
aS'/party-pictures/2010/family-affairs'
p550
aS'/party-pictures/2010/the-history-makers'
p551
aS'/party-pictures/2010/first-bloom-of-autumn'
p552
aS'/party-pictures/2010/top-tails-cocktails-and-night-at-the-museum'
p553
aS'/party-pictures/2010/centennial-celebrations-redemption-song-and-pink-promises'
p554
aS'/party-pictures/2010/one-time-only'
p555
aS'/party-pictures/2010/the-international-city'
p556
aS'/party-pictures/2010/on-the-town'
p557
aS'/party-pictures/2010/new-york-salutes'
p558
aS'/party-pictures/2010/new-yorks-delicacies'
p559
aS'/party-pictures/2010/the-fete-of-fetes'
p560
aS'/party-pictures/2010/living-legends'
p561
aS'/party-pictures/2010/los-angeles-social-diary'
p562
aS'/party-pictures/2010/make-history-galas-and-gala-kick-offs'
p563
aS'/party-pictures/2010/summits-sitdowns-and-special-volunteers'
p564
aS'/party-pictures/2010/new-yorkers-for-children'
p565
aS'/party-pictures/2010/its-a-wrap'
p566
aS'/party-pictures/2010/the-biennale-in-paris-and-the-american-fashion-designers-show'
p567
aS'/party-pictures/2010/screenings-fundraisers-and-true-prepsters'
p568
aS'/party-pictures/2010/home-at-last'
p569
aS'/party-pictures/2010/a-tribute-to-mr-lagerfeld'
p570
aS'/party-pictures/2010/a-big-draw-for-big-names'
p571
aS'/party-pictures/2010/fashion-art-and-literature'
p572
aS'/party-pictures/2010/horses-rule-the-hamptons'
p573
aS'/party-pictures/2010/35th-annual-hampton-classic-horse-show'
p574
aS'/party-pictures/2010/playwrights-photographers-and-polo-players'
p575
aS'/party-pictures/2010/dream-succeed-and-inspire'
p576
aS'/party-pictures/2010/dressed-for-the-occasion'
p577
aS'/party-pictures/2010/end-of-summer-song'
p578
aS'/party-pictures/2010/keeping-us-on-our-toes-in-the-hamptons'
p579
aS'/party-pictures/2010/an-unconditional-love-story-and-money-never-sleeps'
p580
aS'/party-pictures/2010/birthdays-best-buddies-and-book-parties'
p581
aS'/party-pictures/2010/celebrating-the-soul'
p582
aS'/party-pictures/2010/strides-for-life'
p583
aS'/party-pictures/2010/celebrations'
p584
aS'/party-pictures/2010/more-hamptons-happenings'
p585
aS'/party-pictures/2010/hamptons-exhibitions-book-parties-and-living-memorials'
p586
aS'/party-pictures/2010/wild-wild-west-out-east'
p587
aS'/party-pictures/2010/from-montauk-to-nashville-to-palm-beach'
p588
aS'/party-pictures/2010/saturday-in-the-hamptons'
p589
aS'/party-pictures/2010/artcrush-in-aspen'
p590
aS'/party-pictures/2010/socially-obligatory-for-one-reason-or-another'
p591
aS'/party-pictures/2010/glorious-summer-afternoons'
p592
aS'/party-pictures/2010/summer-saturday-afternoons'
p593
aS'/party-pictures/2010/among-those-attending'
p594
aS'/party-pictures/2010/summer-gatherings'
p595
aS'/party-pictures/2010/enchanted-evenings'
p596
aS'/party-pictures/2010/art-for-life-in-the-hamptons'
p597
aS'/party-pictures/2010/a-weekend-of-houses-horses-collector-cars-shopping-and-country'
p598
aS'/party-pictures/2010/watermill-centers-paradiso'
p599
aS'/party-pictures/2010/dog-days-afternoons-and-evenings'
p600
aS'/party-pictures/2010/scenes-from-the-hamptons-to-the-cape'
p601
aS'/party-pictures/2010/hampton-summer-fun'
p602
aS'/party-pictures/2010/ready-willing-and-available'
p603
aS'/party-pictures/2010/summer-picnicking'
p604
aS'/party-pictures/2010/the-parrish-art-museums-annual-midsummer-party'
p605
aS'/party-pictures/2010/love-heals'
p606
aS'/party-pictures/2010/summer-cocktail-parties'
p607
aS'/party-pictures/2010/the-grandest-of-openings'
p608
aS'/party-pictures/2010/independence-and-verve'
p609
aS'/party-pictures/2010/screenings-and-birthdays'
p610
aS'/party-pictures/2010/fourth-of-july-holiday-weekend'
p611
aS'/party-pictures/2010/more-summer-fun'
p612
aS'/party-pictures/2010/the-happy-crowd'
p613
aS'/party-pictures/2010/summer-season-soirees'
p614
aS'/party-pictures/2010/summer-season-in-full-swing'
p615
aS'/party-pictures/2010/on-the-great-lawn-and-in-the-big-city'
p616
aS'/party-pictures/2010/summer-solstice'
p617
aS'/party-pictures/2010/weekends-in-the-hamptons-weekdays-in-manhattan'
p618
aS'/party-pictures/2010/new-york-nights'
p619
aS'/party-pictures/2010/revelry-all-around'
p620
aS'/party-pictures/2010/dance-with-the-dancers'
p621
aS'/party-pictures/2010/summer-events-in-the-hamptons'
p622
aS'/party-pictures/2010/flight-of-fancy'
p623
aS'/party-pictures/2010/one-to-world'
p624
aS'/party-pictures/2010/awards-for-excellence'
p625
aS'/party-pictures/2010/a-little-more-spring'
p626
aS'/party-pictures/2010/just-when-you-thought-everything-was-slowing-down'
p627
aS'/party-pictures/2010/the-annual-conservatory-ball-at-the-new-york-botanical-garden'
p628
aS'/party-pictures/2010/swellagent-elegant-evenings'
p629
aS'/party-pictures/2010/memorial-day-kick-offs'
p630
aS'/party-pictures/2010/black-tie-dinner-dances-and-playground-parties'
p631
aS'/party-pictures/2010/more-gala-kick-offs-and-celebrations'
p632
aS'/party-pictures/2010/rolling-out-the-red-carpet'
p633
aS'/party-pictures/2010/leadership-awards-and-living-legends'
p634
aS'/party-pictures/2010/goings-on-around-town'
p635
aS'/party-pictures/2010/good-agendas'
p636
aS'/party-pictures/2010/celebrating-women-and-men-alike'
p637
aS'/party-pictures/2010/new-york-restoration'
p638
aS'/party-pictures/2010/new-york-on-top'
p639
aS'/party-pictures/2010/restoration-and-redemption'
p640
aS'/party-pictures/2010/celebrate-spring'
p641
aS'/party-pictures/2010/voices-visions'
p642
aS'/party-pictures/2010/babes-bags-and-bubbles'
p643
aS'/party-pictures/2010/sidewalks-of-new-york'
p644
aS'/party-pictures/2010/city-of-hope'
p645
aS'/party-pictures/2010/more-from-the-28th-annual-hat-luncheon'
p646
aS'/party-pictures/2010/promise-and-heritage'
p647
aS'/party-pictures/2010/women-of-distinction'
p648
aS'/party-pictures/2010/the-ballet-the-boys-club-the-fai-the-horticultural-society'
p649
aS'/party-pictures/2010/the-spirit-of-new-york'
p650
aS'/party-pictures/2010/through-the-kitchen'
p651
aS'/party-pictures/2010/sweet-adoptions-lush-botanicals-a-birthday-bash-a-green-auction'
p652
aS'/party-pictures/2010/smack-in-the-middle-of-the-spring-social-season'
p653
aS'/party-pictures/2010/access-to-the-arts'
p654
aS'/party-pictures/2010/music-art-and-community'
p655
aS'/party-pictures/2010/the-museum-dance'
p656
aS'/party-pictures/2010/spring-benefits-and-luncheons'
p657
aS'/party-pictures/2010/the-art-of-giving'
p658
aS'/party-pictures/2010/new-york-in-bloom'
p659
aS'/party-pictures/2010/friends-of-new-yorkers-for-children'
p660
aS'/party-pictures/2010/nysd-archive-party-pictures'
p661
aS'/party-pictures/2010/the-somaly-mam-foundation-and-lenox-hill-neighborhood-house'
p662
aS'/party-pictures/2010/dressed-to-kilt-and-then-some'
p663
aS'/party-pictures/2010/hopping-down-the-bunny-trail'
p664
aS'/party-pictures/2010/scenes-from-chicago-palm-beach-and-la'
p665
aS'/party-pictures/2010/the-last-of-the-winter-galas'
p666
aS'/party-pictures/2010/south-of-the-mason-dixon-line'
p667
aS'/party-pictures/2010/all-about-me-and-the-rest-of-new-york'
p668
aS'/party-pictures/2010/spring-gala-time'
p669
aS'/party-pictures/2010/the-invitation-says-it-all'
p670
aS'/party-pictures/2010/old-stomping-grounds'
p671
aS'/party-pictures/2010/bunny-hop-and-juniors-for-juniors'
p672
aS'/party-pictures/2010/the-vanity-fair-oscar-after-party'
p673
aS'/party-pictures/2010/rising-stars'
p674
aS'/party-pictures/2010/mid-winters-eve'
p675
aS'/party-pictures/2010/c-cap-celebrates-in-new-york-west-hollywood-nights'
p676
aS'/party-pictures/2010/the-pictures-tell-the-story'
p677
aS'/party-pictures/2010/everything-really-is-beautiful-at-the-ballet'
p678
aS'/party-pictures/2010/the-frick-collections-diamond-deco-ball'
p679
aS'/party-pictures/2010/a-winter-palace-in-new-york'
p680
aS'/party-pictures/2010/building-bridges'
p681
aS'/party-pictures/2010/channeling-genius'
p682
aS'/party-pictures/2010/mcnys-directors-council-winter-ball-brought-the-whole-town'
p683
aS'/party-pictures/2010/taking-initiatives'
p684
aS'/party-pictures/2010/fashion-week-has-come-and-gone'
p685
aS'/party-pictures/2010/still-rolling'
p686
aS'/party-pictures/2010/fashion-week-marches-on'
p687
aS'/party-pictures/2010/fashion-week-is-fashion-week-is-fashion-week'
p688
aS'/party-pictures/2010/fashion-week-for-those-of-us-who-are-not-in-the-business'
p689
aS'/party-pictures/2010/a-full-house'
p690
aS'/party-pictures/2010/spring-ball-kick-off-receptions-orchid-dinners-40th-anniversaries'
p691
aS'/party-pictures/2010/drama-the-good-kind'
p692
aS'/party-pictures/2010/super-bowl-parties-art-openings-and-after-parties'
p693
aS'/party-pictures/2010/the-benefits-of-partnerships'
p694
aS'/party-pictures/2010/benefit-luncheons-screenings-and-birthdays'
p695
aS'/party-pictures/2010/anniversary-celebrations'
p696
aS'/party-pictures/2010/fundraisers-and-opening-nights'
p697
aS'/party-pictures/2010/film-fashion-and-form'
p698
aS'/party-pictures/2010/the-feted'
p699
aS'/party-pictures/2010/extraordinary-measures'
p700
aS'/party-pictures/2010/luncheon-fashion-presentation-and-cfda-celebration'
p701
aS'/party-pictures/2010/vital-voices'
p702
aS'/party-pictures/2010/celebrations-and-launches'
p703
aS'/party-pictures/2010/momentum'
p704
aS'/party-pictures/2010/celebrating-the-new-decade'
p705
aS'/party-pictures/2010/paying-tribute'
p706
aS'/party-pictures/2010/new-york-gems'
p707
aS'/party-pictures/2010/picking-up-in-new-york'
p708
aS'/party-pictures/2010/new-york-premieres'
p709
aS'/party-pictures/2009/home-for-the-holidays'
p710
aS'/party-pictures/2009/tis-the-season'
p711
aS'/party-pictures/2009/new-york-to-palm-beach'
p712
aS'/party-pictures/2009/holiday-celebrations'
p713
aS'/party-pictures/2009/a-sweet-moment-for-all-of-us'
p714
aS'/party-pictures/2009/holiday-lights'
p715
aS'/party-pictures/2009/stated-objectives'
p716
aS'/party-pictures/2009/joining-forces'
p717
aS'/party-pictures/2009/winter-wonderlands'
p718
aS'/party-pictures/2009/milestones-and-opening-nights'
p719
aS'/party-pictures/2009/hosting-up-a-storm'
p720
aS'/party-pictures/2009/celebration-of-life'
p721
aS'/party-pictures/2009/music-hope-and-horticulture'
p722
aS'/party-pictures/2009/highlights-of-the-fall-season'
p723
aS'/party-pictures/2009/worth-the-price-of-admission'
p724
aS'/party-pictures/2009/in-the-public-interest'
p725
aS'/party-pictures/2009/in-the-cozy-confines-of-the-city'
p726
aS'/party-pictures/2009/urban-visionaries'
p727
aS'/party-pictures/2009/american-voices'
p728
aS'/party-pictures/2009/fall-galas-galore'
p729
aS'/party-pictures/2009/young-professionals-preside'
p730
aS'/party-pictures/2009/all-kind-of-goodies'
p731
aS'/party-pictures/2009/the-young-and-the-international'
p732
aS'/party-pictures/2009/tricks-and-treats'
p733
aS'/party-pictures/2009/back-to-basics'
p734
aS'/party-pictures/2009/fall-fundraising'
p735
aS'/party-pictures/2009/autumn-celebrations'
p736
aS'/party-pictures/2009/angels-abound'
p737
aS'/party-pictures/2009/new-york-monuments'
p738
aS'/party-pictures/2009/partnerships-and-patrons'
p739
aS'/party-pictures/2009/grand-openings'
p740
aS'/party-pictures/2009/works-on-paper-and-the-big-screen'
p741
aS'/party-pictures/2009/humanitarian-awards'
p742
aS'/party-pictures/2009/the-fall-season-begins-all-over-the-map'
p743
aS'/party-pictures/2009/season-openers'
p744
aS'/party-pictures/2009/undiscovered-gems-and-recognized-beauty'
p745
aS'/party-pictures/2009/americans-for-the-arts-and-education'
p746
aS'/party-pictures/2009/earth-sea-and-space'
p747
aS'/party-pictures/2009/all-over-the-map'
p748
aS'/party-pictures/2009/fall-fete-firsts'
p749
aS'/party-pictures/2009/busting-a-move-back-flips-included'
p750
aS'/party-pictures/2009/new-yorkers-for-childrens-10th-annual-fall-gala'
p751
aS'/party-pictures/2009/abstraction-and-the-real-thing'
p752
aS'/party-pictures/2009/galas-and-collections'
p753
aS'/party-pictures/2009/more-from-fashion-week'
p754
aS'/party-pictures/2009/fashion-week-ongoing'
p755
aS'/party-pictures/2009/on-with-fashion-week'
p756
aS'/party-pictures/2009/fashion-week-2009-begins'
p757
aS'/party-pictures/2009/let-the-fashion-games-begin'
p758
aS'/party-pictures/2009/elegant-nights-of-sounds-and-style'
p759
aS'/party-pictures/2009/a-listers'
p760
aS'/party-pictures/2009/another-hampton-classic'
p761
aS'/party-pictures/2009/jumping-and-singing'
p762
aS'/party-pictures/2009/on-our-toes-in-the-hamptons'
p763
aS'/party-pictures/2009/taking-strides-for-life'
p764
aS'/party-pictures/2009/best-buddies'
p765
aS'/party-pictures/2009/moving-summer-along'
p766
aS'/party-pictures/2009/summer-sun-and-fun'
p767
aS'/party-pictures/2009/into-the-wee-summer-hours'
p768
aS'/party-pictures/2009/hamptons-coalitions'
p769
aS'/party-pictures/2009/the-art-of-fashion-in-the-hamptons'
p770
aS'/party-pictures/2009/winecrush-in-aspen'
p771
aS'/party-pictures/2009/hamptons-hoedowns-and-one-to-world'
p772
aS'/party-pictures/2009/wild-wild-east'
p773
aS'/party-pictures/2009/fashion-presentations-movie-premieres-and-summer-parties'
p774
aS'/party-pictures/2009/as-quiet-as-things-are-in-august'
p775
aS'/party-pictures/2009/super-saturdays'
p776
aS'/party-pictures/2009/horse-competition-social-events-shopping-and-country-fun'
p777
aS'/party-pictures/2009/hamptons-happenings'
p778
aS'/party-pictures/2009/next-generation-has-arrived'
p779
aS'/party-pictures/2009/summer-inferno'
p780
aS'/party-pictures/2009/openings-collections-and-shootouts'
p781
aS'/party-pictures/2009/cocktails-at-sunset'
p782
aS'/party-pictures/2009/summer-sporting'
p783
aS'/party-pictures/2009/art-for-life'
p784
aS'/party-pictures/2009/concerts-premieres-and-idea-festivals'
p785
aS'/party-pictures/2009/summer-season-in-full-swing'
p786
aS'/party-pictures/2009/midsummer-parties'
p787
aS'/party-pictures/2009/summer-was-in-the-air'
p788
aS'/party-pictures/2009/music-art-and-sport'
p789
aS'/party-pictures/2009/the-wedding-of-anna-kennedy-and-michael-safir'
p790
aS'/party-pictures/2009/hollywood-hollywood-fabulous-follywood'
p791
aS'/party-pictures/2009/picnicking-for-fresh-air'
p792
aS'/party-pictures/2009/next-generation'
p793
aS'/party-pictures/2009/form-and-function'
p794
aS'/party-pictures/2009/come-sit-and-stay'
p795
aS'/party-pictures/2009/dinner-and-a-show'
p796
aS'/party-pictures/2009/anniversaries-galas-and-anniversary-galas'
p797
aS'/party-pictures/2009/like-kids-in-a-candy-shop'
p798
aS'/party-pictures/2009/on-the-streets-of-new-york'
p799
aS'/party-pictures/2009/notable-occasions'
p800
aS'/party-pictures/2009/moonlight-and-more'
p801
aS'/party-pictures/2009/lighting-up-lives'
p802
aS'/party-pictures/2009/tribute-dinners-and-better-world-awards'
p803
aS'/party-pictures/2009/the-four-seasons-for-all-seasons'
p804
aS'/party-pictures/2009/closing-out-the-spring-season'
p805
aS'/party-pictures/2009/spring-ahead'
p806
aS'/party-pictures/2009/playing-it-safe'
p807
aS'/party-pictures/2009/one-of-the-last-great-gala-benefits-of-the-spring-season'
p808
aS'/party-pictures/2009/in-the-historic-great-hall'
p809
aS'/party-pictures/2009/polo-princes-and-promising-projects'
p810
aS'/party-pictures/2009/garden-parties-and-big-time-benefits'
p811
aS'/party-pictures/2009/doubles-and-debs'
p812
aS'/party-pictures/2009/fellows-and-young-fellows'
p813
aS'/party-pictures/2009/new-york-restoration-and-conservation'
p814
aS'/party-pictures/2009/fans-of-the-american-ballet-theatre'
p815
aS'/party-pictures/2009/dancing-and-prancing-the-night-away'
p816
aS'/party-pictures/2009/the-last-of-the-spring-balls'
p817
aS'/party-pictures/2009/new-yorkers-waltzing-along'
p818
aS'/party-pictures/2009/marching-through-new-york'
p819
aS'/party-pictures/2009/new-york-pops'
p820
aS'/party-pictures/2009/the-model-as-muse'
p821
aS'/party-pictures/2009/new-york-in-communication'
p822
aS'/party-pictures/2009/evenings-of-music-art-horticulture-and-initiative'
p823
aS'/party-pictures/2009/classical-visionaries'
p824
aS'/party-pictures/2009/spring-for-a-cure'
p825
aS'/party-pictures/2009/lectures-luncheons-premieres-rooftop-parties-and-more'
p826
aS'/party-pictures/2009/the-big-apple-beat'
p827
aS'/party-pictures/2009/cinderella-balls-all-over-town'
p828
aS'/party-pictures/2009/still-going-strong'
p829
aS'/party-pictures/2009/revelry-and-community'
p830
aS'/party-pictures/2009/more-from-the-fools-fete'
p831
aS'/party-pictures/2009/young-peoples-chorus'
p832
aS'/party-pictures/2009/beautiful-people'
p833
aS'/party-pictures/2009/equality-now'
p834
aS'/party-pictures/2009/new-york-faces-and-places'
p835
aS'/party-pictures/2009/artsy-celebrations'
p836
aS'/party-pictures/2009/rave-reviews'
p837
aS'/party-pictures/2009/dressed-to-the-nines'
p838
aS'/party-pictures/2009/dining-by-design'
p839
aS'/party-pictures/2009/in-the-city-of-hope'
p840
aS'/party-pictures/2009/a-sense-of-community'
p841
aS'/party-pictures/2009/public-installations'
p842
aS'/party-pictures/2009/style-and-scad'
p843
aS'/party-pictures/2009/looking-up-in-new-york'
p844
aS'/party-pictures/2009/young-lions'
p845
aS'/party-pictures/2009/announcements-and-breakthroughs'
p846
aS'/party-pictures/2009/dance-and-debuts'
p847
aS'/party-pictures/2009/new-york-kick-offs'
p848
aS'/party-pictures/2009/new-york-new-york'
p849
aS'/party-pictures/2009/frolicking-and-rollicking'
p850
aS'/party-pictures/2009/duty-in-fashion'
p851
aS'/party-pictures/2009/hopping-along'
p852
aS'/party-pictures/2009/orchids-and-exhibitions'
p853
aS'/party-pictures/2009/leading-ladies-and-men-too'
p854
aS'/party-pictures/2009/curtsying-around-town'
p855
aS'/party-pictures/2009/fashion-still-on-going'
p856
aS'/party-pictures/2009/fashion-is-alive-and-well'
p857
aS'/party-pictures/2009/dancing-prancing-and-cocktailing-down-the-runway'
p858
aS'/party-pictures/2009/parties-to-party'
p859
aS'/party-pictures/2009/life-and-love'
p860
aS'/party-pictures/2009/luncheons-galas-and-generosity'
p861
aS'/party-pictures/2009/benefit-concerts-dancing-galas-and-post-gala-dinners'
p862
aS'/party-pictures/2009/lots-of-drama'
p863
aS'/party-pictures/2009/philanthropy-community-service-and-advocacy'
p864
aS'/party-pictures/2009/a-festival-week'
p865
aS'/party-pictures/2009/ill-take-manhattan'
p866
aS'/party-pictures/2009/opening-night'
p867
aS'/party-pictures/2009/skating-screen-and-fashion-stars'
p868
aS'/party-pictures/2009/music-lovers-convene'
p869
aS'/party-pictures/2009/young-collectors-and-gifted-designers'
p870
aS'/party-pictures/2009/the-fashionable-and-the-bejeweled-still-making-a-case'
p871
aS'/party-pictures/2009/the-dibs-on-debs'
p872
aS'/party-pictures/2008/shows-book-parties-and-free-arts'
p873
aS'/party-pictures/2008/glittering-nights'
p874
aS'/party-pictures/2008/peace-love-joy-happiness'
p875
aS'/party-pictures/2008/exhibitions-screenings-and-book-parties'
p876
aS'/party-pictures/2008/family-benefits-and-initiatives'
p877
aS'/party-pictures/2008/forward-thinking-in-a-changing-world'
p878
aS'/party-pictures/2008/holiday-giving'
p879
aS'/party-pictures/2008/dinner-scenes'
p880
aS'/party-pictures/2008/winter-wonderland-0'
p881
aS'/party-pictures/2008/fabulous-females'
p882
aS'/party-pictures/2008/holiday-bazaars'
p883
aS'/party-pictures/2008/prominent-social-presences'
p884
aS'/party-pictures/2008/women-and-children-of-distinction'
p885
aS'/party-pictures/2008/breakthroughs-and-balls'
p886
aS'/party-pictures/2008/women-in-design-and-free-arts'
p887
aS'/party-pictures/2008/celebration-of-life'
p888
aS'/party-pictures/2008/outreach-conservation-and-prevention'
p889
aS'/party-pictures/2008/fashion-fun'
p890
aS'/party-pictures/2008/event-goers-stars-and-socialites'
p891
aS'/party-pictures/2008/the-world-according-to-nysd'
p892
aS'/party-pictures/2008/opening-nights-and-open-books'
p893
aS'/party-pictures/2008/the-spice-of-life'
p894
aS'/party-pictures/2008/holiday-highs'
p895
aS'/party-pictures/2008/goin-and-comin-all-over-town'
p896
aS'/party-pictures/2008/read-to-live'
p897
aS'/party-pictures/2008/raising-critical-funds-for-research'
p898
aS'/party-pictures/2008/cinema-and-conservation'
p899
aS'/party-pictures/2008/balls-birthdays-benefits-and-books'
p900
aS'/party-pictures/2008/halloween-ghoulas'
p901
aS'/party-pictures/2008/fall-fetes'
p902
aS'/party-pictures/2008/tricks-treats-and-tales'
p903
aS'/party-pictures/2008/prospect-park-and-central-park-celebrations'
p904
aS'/party-pictures/2008/history-in-the-making'
p905
aS'/party-pictures/2008/fall-season-soirees'
p906
aS'/party-pictures/2008/gala-nights-and-family-fun'
p907
aS'/party-pictures/2008/the-beat-goes-on'
p908
aS'/party-pictures/2008/breaking-through'
p909
aS'/party-pictures/2008/honoring-icons-of-art-and-design'
p910
aS'/party-pictures/2008/new-york-notables'
p911
aS'/party-pictures/2008/fiesta-forever'
p912
aS'/party-pictures/2008/expedition-america'
p913
aS'/party-pictures/2008/playing-catch-up'
p914
aS'/party-pictures/2008/tomorrow-is-tonight'
p915
aS'/party-pictures/2008/advancing-the-children-and-the-arts'
p916
aS'/party-pictures/2008/birthdays-cinemas-and-neighborhoods'
p917
aS'/party-pictures/2008/steps-to-a-healthier-life'
p918
aS'/party-pictures/2008/kicks-offs-and-lists'
p919
aS'/party-pictures/2008/a-return-to-something-restorative'
p920
aS'/party-pictures/2008/exploring-the-arts'
p921
aS'/party-pictures/2008/grand-finales'
p922
aS'/party-pictures/2008/night-at-the-museum'
p923
aS'/party-pictures/2008/moving-to-higher-ground'
p924
aS'/party-pictures/2008/fetes-all-around'
p925
aS'/party-pictures/2008/new-yorkers-for-children-0'
p926
aS'/party-pictures/2008/ambassadors-of-film-and-society'
p927
aS'/party-pictures/2008/keeping-us-on-our-toes'
p928
aS'/party-pictures/2008/marc-jacobs-rules'
p929
aS'/party-pictures/2008/calvin-kleins-40th-anniversary-event'
p930
aS'/party-pictures/2008/fashion-rocks-with-patrick-mcmullan'
p931
aS'/party-pictures/2008/waiting-for-reality-rushing-to-completion'
p932
aS'/party-pictures/2008/the-last-song-of-summer'
p933
aS'/party-pictures/2008/strides-for-life'
p934
aS'/party-pictures/2008/welcome-to-the-wonderful-world-of-the-nysd'
p935
aS'/party-pictures/2008/open-eras'
p936
aS'/party-pictures/2008/fundraising-galas-and-closing-cermonies'
p937
aS'/party-pictures/2008/balls-birthdays-and-luncheons'
p938
aS'/party-pictures/2008/in-the-land-of-rsvp'
p939
aS'/party-pictures/2008/best-buddies-in-the-hamptons'
p940
aS'/party-pictures/2008/hampton-summers'
p941
aS'/party-pictures/2008/art-crushes'
p942
aS'/party-pictures/2008/summer-and-tropical-thunder'
p943
aS'/party-pictures/2008/mane-events-in-the-hamptons'
p944
aS'/party-pictures/2008/midsummer-socials'
p945
aS'/party-pictures/2008/summer-carnivals'
p946
aS'/party-pictures/2008/coalitions-and-golden-galas'
p947
aS'/party-pictures/2008/in-summer-when-the-days-are-long'
p948
aS'/party-pictures/2008/saving-venice'
p949
aS'/party-pictures/2008/the-wedding-of-lisa-helene-meiland-and-andrew-james-martin'
p950
aS'/party-pictures/2008/an-anniversary-of-hope'
p951
aS'/party-pictures/2008/happy-birthday-leos'
p952
aS'/party-pictures/2008/uptown-meets-downtown'
p953
aS'/party-pictures/2008/a-little-tango-a-lotta-polo'
p954
aS'/party-pictures/2008/art-for-life-0'
p955
aS'/party-pictures/2008/cocktails-at-sunset'
p956
aS'/party-pictures/2008/starry-starry-nights'
p957
aS'/party-pictures/2008/celebration-of-ideas'
p958
aS'/party-pictures/2008/creme-de-la-creme'
p959
aS'/party-pictures/2008/promote-support-and-pursue'
p960
aS'/party-pictures/2008/summer-cruising'
p961
aS'/party-pictures/2008/summer-soiree-ing'
p962
aS'/party-pictures/2008/party-pickins'
p963
aS'/party-pictures/2008/summer-lovin'
p964
aS'/party-pictures/2008/urban-visionaries'
p965
aS'/party-pictures/2008/summer-views'
p966
aS'/party-pictures/2008/summer-solstice'
p967
aS'/party-pictures/2008/notable-occassions'
p968
aS'/party-pictures/2008/summer-love-heals'
p969
aS'/party-pictures/2008/gala-celebrations-birthdays-and-kick-offs'
p970
aS'/party-pictures/2008/grooming-for-the-future'
p971
aS'/party-pictures/2008/workshop-performances'
p972
aS'/party-pictures/2008/mai-tai-madness'
p973
aS'/party-pictures/2008/summer-soirees'
p974
aS'/party-pictures/2008/its-open-season'
p975
aS'/party-pictures/2008/jumpin-june'
p976
aS'/party-pictures/2008/collective-power-making-an-impact'
p977
aS'/party-pictures/2008/super-bowls-and-the-city'
p978
aS'/party-pictures/2008/spring-galas-galore'
p979
aS'/party-pictures/2008/the-last-of-spring-flings'
p980
aS'/party-pictures/2008/a-little-something-for-everyone'
p981
aS'/party-pictures/2008/the-art-of-giving'
p982
aS'/party-pictures/2008/bals-balls-and-galas'
p983
aS'/party-pictures/2008/everything-is-beautiful-at-the-ballet'
p984
aS'/party-pictures/2008/dancing-for-dia'
p985
aS'/party-pictures/2008/celebration-of-life-and-the-arts'
p986
aS'/party-pictures/2008/lifetime-achievements-and-spring-benefits'
p987
aS'/party-pictures/2008/so-new-york'
p988
aS'/party-pictures/2008/galas-upon-galas'
p989
aS'/party-pictures/2008/awards-for-excellence'
p990
aS'/party-pictures/2008/a-tale-of-two-cities-0'
p991
aS'/party-pictures/2008/monday-restorations'
p992
aS'/party-pictures/2008/hats-of-all-shapes-and-sizes'
p993
aS'/party-pictures/2008/26th-annual-frederick-law-olmsted-awards-luncheon'
p994
aS'/party-pictures/2008/let-everyone-have-some-cake'
p995
aS'/party-pictures/2008/color-design-collaboration'
p996
aS'/party-pictures/2008/taking-their-bows'
p997
aS'/party-pictures/2008/spring-celebrations'
p998
aS'/party-pictures/2008/the-american-experience'
p999
aS'/party-pictures/2008/living-and-learning'
p1000
aS'/party-pictures/2008/initiatives'
p1001
aS'/party-pictures/2008/library-and-lineage'
p1002
aS'/party-pictures/2008/for-our-children-and-animals'
p1003
aS'/party-pictures/2008/new-yorkers-for-children'
p1004
aS'/party-pictures/2008/triumphs-and-tributes'
p1005
aS'/party-pictures/2008/art-for-life'
p1006
aS'/party-pictures/2008/gala-dinners-and-rooftop-gardens'
p1007
aS'/party-pictures/2008/an-oh-so-venetian-heritage'
p1008
aS'/party-pictures/2008/hottest-tickets-in-town'
p1009
aS'/party-pictures/2008/celebrate-spring'
p1010
aS'/party-pictures/2008/diffa-lenox-hill-american-poets-castle-connolly'
p1011
aS'/party-pictures/2008/greater-links'
p1012
aS'/party-pictures/2008/award-dinners-and-its-honorees'
p1013
aS'/party-pictures/2008/preservation-and-performance-art'
p1014
aS'/party-pictures/2008/a-little-dc-and-palm-beach-in-the-mix'
p1015
aS'/party-pictures/2008/abt-gods-love-we-deliver-cinema-society-the-carlyle'
p1016
aS'/party-pictures/2008/gala-previews-and-masked-balls'
p1017
aS'/party-pictures/2008/on-the-bunny-trail'
p1018
aS'/party-pictures/2008/celebrating-stella-adler-and-st-patricks-with-patrick'
p1019
aS'/party-pictures/2008/new-york-to-palm-beach'
p1020
aS'/party-pictures/2008/dance-opera-legacy-and-preservation'
p1021
aS'/party-pictures/2008/symphony-space-and-bunny-hop'
p1022
aS'/party-pictures/2008/dessert-and-dancing'
p1023
aS'/party-pictures/2008/a-little-bit-of-everything'
p1024
aS'/party-pictures/2008/on-the-red-carpet'
p1025
aS'/party-pictures/2008/winter-balls-and-studio-in-a-school'
p1026
aS'/party-pictures/2008/book-parties-art-openings-and-italian-cuisine'
p1027
aS'/party-pictures/2008/cars-and-fashion'
p1028
aS'/party-pictures/2008/other-girls-and-orchids'
p1029
aS'/party-pictures/2008/a-tribute-to-all'
p1030
aS'/party-pictures/2008/piggin-out'
p1031
aS'/party-pictures/2008/hollywoods-own-religious-holiday'
p1032
aS'/party-pictures/2008/party-picture-potluck'
p1033
aS'/party-pictures/2008/state-of-the-art-giving'
p1034
aS'/party-pictures/2008/dancing-with-the-stars'
p1035
aS'/party-pictures/2008/la-social-diary'
p1036
aS'/party-pictures/2008/symphonic-sounds'
p1037
aS'/party-pictures/2008/fashion-and-film'
p1038
aS'/party-pictures/2008/citizens-of-and-for-new-york'
p1039
aS'/party-pictures/2008/the-state-of-the-debutantes'
p1040
aS'/party-pictures/2008/a-symphony-of-mediums'
p1041
aS'/party-pictures/2008/ny-la-houston-social-diary'
p1042
aS'/party-pictures/2008/starry-nights'
p1043
aS'/party-pictures/2008/celebrating-the-visual-arts'
p1044
aS'/party-pictures/2008/opening-nights'
p1045
aS'/party-pictures/2008/new-york-back-in-the-swing'
p1046
aS'/party-pictures/2008/skating-along'
p1047
aS'/party-pictures/2008/more-new-years-eve'
p1048
aS'/party-pictures/2007/gala-dinners-grand-openings-and-names-in-the-fame-game'
p1049
aS'/party-pictures/2007/gala-dinners-are-in-the-air'
p1050
aS'/party-pictures/2007/celebrating-the-holiday-spirit'
p1051
aS'/party-pictures/2007/dance-theater-legendary-journalists-botanical-balls'
p1052
aS'/party-pictures/2007/music-to-our-ears-0'
p1053
aS'/party-pictures/2007/ill-take-manhattan'
p1054
aS'/party-pictures/2007/record-breaking-new-york-nights'
p1055
aS'/party-pictures/2007/groovy-thing-happenings-all-over-new-york'
p1056
aS'/party-pictures/2007/gala-benefits-galore'
p1057
aS'/party-pictures/2007/visionaries-on-todays-party-pictures'
p1058
aS'/party-pictures/2007/artwalk-ny-trophee-des-arts'
p1059
aS'/party-pictures/2007/cinema-dance-and-dessert'
p1060
aS'/party-pictures/2007/making-history'
p1061
aS'/party-pictures/2007/new-yorkers-for-all'
p1062
aS'/party-pictures/2007/arts-in-society'
p1063
aS'/party-pictures/2007/gala-nights'
p1064
aS'/party-pictures/2007/new-york-in-sync'
p1065
aS'/party-pictures/2007/new-york-in-full'
p1066
aS'/party-pictures/2007/autumn-balls'
p1067
aS'/party-pictures/2007/safe-at-home'
p1068
aS'/party-pictures/2007/hooray-for-hollywood-in-new-york'
p1069
aS'/party-pictures/2007/la-dolce-vita'
p1070
aS'/party-pictures/2007/keeping-new-york-healthy'
p1071
aS'/party-pictures/2007/awards-for-excellence'
p1072
aS'/party-pictures/2007/galas-concerts-book-parties-and-anniversaries'
p1073
aS'/party-pictures/2007/inside-broadway-and-beyond'
p1074
aS'/party-pictures/2007/halloween-hadrian-and-houston'
p1075
aS'/party-pictures/2007/shades-of-gray'
p1076
aS'/party-pictures/2007/royal-lineage-on-todays-lineup'
p1077
aS'/party-pictures/2007/lightin-up-lives'
p1078
aS'/party-pictures/2007/family-fun-for-all'
p1079
aS'/party-pictures/2007/molto-music'
p1080
aS'/party-pictures/2007/an-isle-of-joy'
p1081
aS'/party-pictures/2007/celebrating-design-and-decor'
p1082
aS'/party-pictures/2007/autumn-in-new-york-fall-for-all'
p1083
aS'/party-pictures/2007/fall-fetes'
p1084
aS'/party-pictures/2007/benefits-birthdays-and-kick-offs'
p1085
aS'/party-pictures/2007/pursenalities-and-olympic-gold'
p1086
aS'/party-pictures/2007/magical-evenings'
p1087
aS'/party-pictures/2007/feasts-and-fetes'
p1088
aS'/party-pictures/2007/picture-perfect'
p1089
aS'/party-pictures/2007/fundraising-and-friends'
p1090
aS'/party-pictures/2007/parties-openings-luncheons-and-galas-galore'
p1091
aS'/party-pictures/2007/new-yorkers-for-children'
p1092
aS'/party-pictures/2007/what-legends-are-made-of-0'
p1093
aS'/party-pictures/2007/une-journee'
p1094
aS'/party-pictures/2007/toots-amour'
p1095
aS'/party-pictures/2007/anniversaries-films-and-fashion'
p1096
aS'/party-pictures/2007/fashion-rules'
p1097
aS'/party-pictures/2007/fashion-passion-parties-all-over-town'
p1098
aS'/party-pictures/2007/summer-wrap'
p1099
aS'/party-pictures/2007/tangier-and-beyond'
p1100
aS'/party-pictures/2007/social-soirees-in-the-hamptons-and-manhattan'
p1101
aS'/party-pictures/2007/tennis-theater-and-trunk-shows'
p1102
aS'/party-pictures/2007/hunting-in-the-hamptons'
p1103
aS'/party-pictures/2007/catwalking-chicago-galloping-bridgehampton'
p1104
aS'/party-pictures/2007/king-of-california-in-the-hamptons'
p1105
aS'/party-pictures/2007/shop-til-you-drop'
p1106
aS'/party-pictures/2007/wild-west-on-the-east-coast'
p1107
aS'/party-pictures/2007/designer-days'
p1108
aS'/party-pictures/2007/hampton-rallies'
p1109
aS'/party-pictures/2007/polo-playing-dancing-and-painting-all-summer-long'
p1110
aS'/party-pictures/2007/qatar-mozart-and-newport-all-in-one'
p1111
aS'/party-pictures/2007/new-darlings-of-fashion-hampton-days'
p1112
aS'/party-pictures/2007/the-horsey-set-on-todays-nysd'
p1113
aS'/party-pictures/2007/dance-and-design'
p1114
aS'/party-pictures/2007/cocktails-for-a-cause'
p1115
aS'/party-pictures/2007/guests-of-honor'
p1116
aS'/party-pictures/2007/glitterati-flocks-to-nysd'
p1117
aS'/party-pictures/2007/hamptons-hudson-valley-and-newport'
p1118
aS'/party-pictures/2007/be-ing-kind-in-the-country'
p1119
aS'/party-pictures/2007/uptown-ensembles-and-miami-fashion'
p1120
aS'/party-pictures/2007/southampton-old-and-new'
p1121
aS'/party-pictures/2007/awards-dinners-benefits-and-summer-screenings'
p1122
aS'/party-pictures/2007/from-soho-to-roma'
p1123
aS'/party-pictures/2007/fundraising-and-film'
p1124
aS'/party-pictures/2007/ace-cinema'
p1125
aS'/party-pictures/2007/hollywood-in-the-hamptons'
p1126
aS'/party-pictures/2007/southampton-days-and-nights'
p1127
aS'/party-pictures/2007/houston-arrives-new-yorkers-forever'
p1128
aS'/party-pictures/2007/from-the-hamptons-to-rock-center'
p1129
aS'/party-pictures/2007/friday-fun-and-sun'
p1130
aS'/party-pictures/2007/celebrating-authors-and-the-arts'
p1131
aS'/party-pictures/2007/city-harvest-to-newport-to-new-opera'
p1132
aS'/party-pictures/2007/ajws-cpc-zero-tolerance-nyers-for-children'
p1133
aS'/party-pictures/2007/dance-with-the-dancers'
p1134
aS'/party-pictures/2007/bring-in-the-calvary'
p1135
aS'/party-pictures/2007/catching-up-with-the-2-weeks-past'
p1136
aS'/party-pictures/2007/a-triple-header'
p1137
aS'/party-pictures/2007/audubon-lhnh-central-park-and-nypl'
p1138
aS'/party-pictures/2007/ebb-and-flow-of-the-new-york-social-scene'
p1139
aS'/party-pictures/2007/the-ballet-francophiles-and-the-frick'
p1140
aS'/party-pictures/2007/renaissance-day'
p1141
aS'/party-pictures/2007/chairs-and-contemporaries'
p1142
aS'/party-pictures/2007/orpheus-chamber-operation-smile-new-york-historical-society-kids-of-nyu-darphin'
p1143
aS'/party-pictures/2007/friends-and-tastemakers'
p1144
aS'/party-pictures/2007/arthur-ross-riverkeeper-and-macdowell'
p1145
aS'/party-pictures/2007/invitations-all-around'
p1146
aS'/party-pictures/2007/striking-out'
p1147
aS'/party-pictures/2007/out-of-this-world'
p1148
aS'/party-pictures/2007/the-grand-surprise'
p1149
aS'/party-pictures/2007/institutions'
p1150
aS'/party-pictures/2007/something-for-everyone'
p1151
aS'/party-pictures/2007/new-york-pops'
p1152
aS'/party-pictures/2007/ready-set-go'
p1153
aS'/party-pictures/2007/dancing-under-the-stars'
p1154
aS'/party-pictures/2007/the-art-of-giving'
p1155
aS'/party-pictures/2007/riffs-on-hats'
p1156
aS'/party-pictures/2007/unveiling-music-and-art'
p1157
aS'/party-pictures/2007/win-win-situation'
p1158
aS'/party-pictures/2007/taking-initiative'
p1159
aS'/party-pictures/2007/lectures-and-learning'
p1160
aS'/party-pictures/2007/bal-de-berceaux-and-galas-galore'
p1161
aS'/party-pictures/2007/a-little-love-goes-a-long-way'
p1162
aS'/party-pictures/2007/abt-el-museo-bomb-magazine-and-colette'
p1163
aS'/party-pictures/2007/a-real-new-yawk-kinda-day'
p1164
aS'/party-pictures/2007/springing-to-life'
p1165
aS'/party-pictures/2007/the-wedding-of-lara-meiland-and-claude-shaw'
p1166
aS'/party-pictures/2007/narsad-autism-speaks-the-links'
p1167
aS'/party-pictures/2007/oath-for-darfur-dress-for-success-free-arts-bentley-unveils'
p1168
aS'/party-pictures/2007/dressed-to-kilt-dressing'
p1169
aS'/party-pictures/2007/hoppin-down-the-bunny-trail-the-boys-town-of-italy'
p1170
aS'/party-pictures/2007/the-auto-show-a-book-party-and-an-anniversary'
p1171
aS'/party-pictures/2007/monday-roundup'
p1172
aS'/party-pictures/2007/great-chefs-and-great-film-0'
p1173
aS'/party-pictures/2007/citymeals-nyers-for-children-churchill-foundation'
p1174
aS'/party-pictures/2007/guild-hall-and-the-community-coalition'
p1175
aS'/party-pictures/2007/garden-of-hope-artrageous-on-nysd'
p1176
aS'/party-pictures/2007/young-set-making-a-difference'
p1177
aS'/party-pictures/2007/spiritual-nights'
p1178
aS'/party-pictures/2007/fridays-frills'
p1179
aS'/party-pictures/2007/the-new-york-philharmonic-symphony-space'
p1180
aS'/party-pictures/2007/music-to-our-ears'
p1181
aS'/party-pictures/2007/the-whole-towns-around-and-all-over-town'
p1182
aS'/party-pictures/2007/music-of-winternight-and-then-some'
p1183
aS'/party-pictures/2007/dancing-ladies-bunny-hops-and-cinema-vanities'
p1184
aS'/party-pictures/2007/uptown-and-way-downtown'
p1185
aS'/party-pictures/2007/celebrating-the-frick-and-the-loebs'
p1186
aS'/party-pictures/2007/mondays-lineup'
p1187
aS'/party-pictures/2007/seeing-pink-on-nysd'
p1188
aS'/party-pictures/2007/designing-for-a-higher-cause'
p1189
aS'/party-pictures/2007/sparkling-winter-social-season'
p1190
aS'/party-pictures/2007/oscar-makes-its-way-to-new-york'
p1191
aS'/party-pictures/2007/saving-venice-head-on'
p1192
aS'/party-pictures/2007/orchids-growing-wild'
p1193
a.